LIBRARY msvcrz.dll
EXPORTS
??0?$_SpinWait@$00@details@Concurrency@@QAE@P6AXXZ@Z = msvcr110.??0?$_SpinWait@$00@details@Concurrency@@QAE@P6AXXZ@Z
??0?$_SpinWait@$0A@@details@Concurrency@@QAE@P6AXXZ@Z = msvcr110.??0?$_SpinWait@$0A@@details@Concurrency@@QAE@P6AXXZ@Z
??0SchedulerPolicy@Concurrency@@QAA@IZZ = msvcr110.??0SchedulerPolicy@Concurrency@@QAA@IZZ
??0SchedulerPolicy@Concurrency@@QAE@ABV01@@Z = msvcr110.??0SchedulerPolicy@Concurrency@@QAE@ABV01@@Z
??0SchedulerPolicy@Concurrency@@QAE@XZ = msvcr110.??0SchedulerPolicy@Concurrency@@QAE@XZ
??0_Cancellation_beacon@details@Concurrency@@QAE@XZ = msvcr110.??0_Cancellation_beacon@details@Concurrency@@QAE@XZ
??0_Condition_variable@details@Concurrency@@QAE@XZ = msvcr110.??0_Condition_variable@details@Concurrency@@QAE@XZ
??0_Context@details@Concurrency@@QAE@PAVContext@2@@Z = msvcr110.??0_Context@details@Concurrency@@QAE@PAVContext@2@@Z
??0_Interruption_exception@details@Concurrency@@QAE@PBD@Z = msvcr110.??0_Interruption_exception@details@Concurrency@@QAE@PBD@Z
??0_Interruption_exception@details@Concurrency@@QAE@XZ = msvcr110.??0_Interruption_exception@details@Concurrency@@QAE@XZ
??0_NonReentrantBlockingLock@details@Concurrency@@QAE@XZ = msvcr110.??0_NonReentrantBlockingLock@details@Concurrency@@QAE@XZ
??0_NonReentrantPPLLock@details@Concurrency@@QAE@XZ = msvcr110.??0_NonReentrantPPLLock@details@Concurrency@@QAE@XZ
??0_ReaderWriterLock@details@Concurrency@@QAE@XZ = msvcr110.??0_ReaderWriterLock@details@Concurrency@@QAE@XZ
??0_ReentrantBlockingLock@details@Concurrency@@QAE@XZ = msvcr110.??0_ReentrantBlockingLock@details@Concurrency@@QAE@XZ
??0_ReentrantLock@details@Concurrency@@QAE@XZ = msvcr110.??0_ReentrantLock@details@Concurrency@@QAE@XZ
??0_ReentrantPPLLock@details@Concurrency@@QAE@XZ = msvcr110.??0_ReentrantPPLLock@details@Concurrency@@QAE@XZ
??0_Scheduler@details@Concurrency@@QAE@PAVScheduler@2@@Z = msvcr110.??0_Scheduler@details@Concurrency@@QAE@PAVScheduler@2@@Z
??0_Scoped_lock@_NonReentrantPPLLock@details@Concurrency@@QAE@AAV123@@Z = msvcr110.??0_Scoped_lock@_NonReentrantPPLLock@details@Concurrency@@QAE@AAV123@@Z
??0_Scoped_lock@_ReentrantPPLLock@details@Concurrency@@QAE@AAV123@@Z = msvcr110.??0_Scoped_lock@_ReentrantPPLLock@details@Concurrency@@QAE@AAV123@@Z
??0_SpinLock@details@Concurrency@@QAE@ACJ@Z = msvcr110.??0_SpinLock@details@Concurrency@@QAE@ACJ@Z
??0_StructuredTaskCollection@details@Concurrency@@QAE@PAV_CancellationTokenState@12@@Z = msvcr110.??0_StructuredTaskCollection@details@Concurrency@@QAE@PAV_CancellationTokenState@12@@Z
??0_TaskCollection@details@Concurrency@@QAE@PAV_CancellationTokenState@12@@Z = msvcr110.??0_TaskCollection@details@Concurrency@@QAE@PAV_CancellationTokenState@12@@Z
??0_TaskCollection@details@Concurrency@@QAE@XZ = msvcr110.??0_TaskCollection@details@Concurrency@@QAE@XZ
??0_Timer@details@Concurrency@@IAE@I_N@Z = msvcr110.??0_Timer@details@Concurrency@@IAE@I_N@Z
??0__non_rtti_object@std@@QAE@ABV01@@Z = msvcr110.??0__non_rtti_object@std@@QAE@ABV01@@Z
??0__non_rtti_object@std@@QAE@PBD@Z = msvcr110.??0__non_rtti_object@std@@QAE@PBD@Z
??0bad_cast@std@@AAE@PBQBD@Z = msvcr110.??0bad_cast@std@@AAE@PBQBD@Z
??0bad_cast@std@@QAE@ABV01@@Z = msvcr110.??0bad_cast@std@@QAE@ABV01@@Z
??0bad_cast@std@@QAE@PBD@Z = msvcr110.??0bad_cast@std@@QAE@PBD@Z
??0bad_target@Concurrency@@QAE@PBD@Z = msvcr110.??0bad_target@Concurrency@@QAE@PBD@Z
??0bad_target@Concurrency@@QAE@XZ = msvcr110.??0bad_target@Concurrency@@QAE@XZ
??0bad_typeid@std@@QAE@ABV01@@Z = msvcr110.??0bad_typeid@std@@QAE@ABV01@@Z
??0bad_typeid@std@@QAE@PBD@Z = msvcr110.??0bad_typeid@std@@QAE@PBD@Z
??0context_self_unblock@Concurrency@@QAE@PBD@Z = msvcr110.??0context_self_unblock@Concurrency@@QAE@PBD@Z
??0context_self_unblock@Concurrency@@QAE@XZ = msvcr110.??0context_self_unblock@Concurrency@@QAE@XZ
??0context_unblock_unbalanced@Concurrency@@QAE@PBD@Z = msvcr110.??0context_unblock_unbalanced@Concurrency@@QAE@PBD@Z
??0context_unblock_unbalanced@Concurrency@@QAE@XZ = msvcr110.??0context_unblock_unbalanced@Concurrency@@QAE@XZ
??0critical_section@Concurrency@@QAE@XZ = msvcr110.??0critical_section@Concurrency@@QAE@XZ
??0default_scheduler_exists@Concurrency@@QAE@PBD@Z = msvcr110.??0default_scheduler_exists@Concurrency@@QAE@PBD@Z
??0default_scheduler_exists@Concurrency@@QAE@XZ = msvcr110.??0default_scheduler_exists@Concurrency@@QAE@XZ
??0event@Concurrency@@QAE@XZ = msvcr110.??0event@Concurrency@@QAE@XZ
??0exception@std@@QAE@ABQBD@Z = msvcr110.??0exception@std@@QAE@ABQBD@Z
??0exception@std@@QAE@ABQBDH@Z = msvcr110.??0exception@std@@QAE@ABQBDH@Z
??0exception@std@@QAE@ABV01@@Z = msvcr110.??0exception@std@@QAE@ABV01@@Z
??0exception@std@@QAE@XZ = msvcr110.??0exception@std@@QAE@XZ
??0improper_lock@Concurrency@@QAE@PBD@Z = msvcr110.??0improper_lock@Concurrency@@QAE@PBD@Z
??0improper_lock@Concurrency@@QAE@XZ = msvcr110.??0improper_lock@Concurrency@@QAE@XZ
??0improper_scheduler_attach@Concurrency@@QAE@PBD@Z = msvcr110.??0improper_scheduler_attach@Concurrency@@QAE@PBD@Z
??0improper_scheduler_attach@Concurrency@@QAE@XZ = msvcr110.??0improper_scheduler_attach@Concurrency@@QAE@XZ
??0improper_scheduler_detach@Concurrency@@QAE@PBD@Z = msvcr110.??0improper_scheduler_detach@Concurrency@@QAE@PBD@Z
??0improper_scheduler_detach@Concurrency@@QAE@XZ = msvcr110.??0improper_scheduler_detach@Concurrency@@QAE@XZ
??0improper_scheduler_reference@Concurrency@@QAE@PBD@Z = msvcr110.??0improper_scheduler_reference@Concurrency@@QAE@PBD@Z
??0improper_scheduler_reference@Concurrency@@QAE@XZ = msvcr110.??0improper_scheduler_reference@Concurrency@@QAE@XZ
??0invalid_link_target@Concurrency@@QAE@PBD@Z = msvcr110.??0invalid_link_target@Concurrency@@QAE@PBD@Z
??0invalid_link_target@Concurrency@@QAE@XZ = msvcr110.??0invalid_link_target@Concurrency@@QAE@XZ
??0invalid_multiple_scheduling@Concurrency@@QAE@PBD@Z = msvcr110.??0invalid_multiple_scheduling@Concurrency@@QAE@PBD@Z
??0invalid_multiple_scheduling@Concurrency@@QAE@XZ = msvcr110.??0invalid_multiple_scheduling@Concurrency@@QAE@XZ
??0invalid_operation@Concurrency@@QAE@PBD@Z = msvcr110.??0invalid_operation@Concurrency@@QAE@PBD@Z
??0invalid_operation@Concurrency@@QAE@XZ = msvcr110.??0invalid_operation@Concurrency@@QAE@XZ
??0invalid_oversubscribe_operation@Concurrency@@QAE@PBD@Z = msvcr110.??0invalid_oversubscribe_operation@Concurrency@@QAE@PBD@Z
??0invalid_oversubscribe_operation@Concurrency@@QAE@XZ = msvcr110.??0invalid_oversubscribe_operation@Concurrency@@QAE@XZ
??0invalid_scheduler_policy_key@Concurrency@@QAE@PBD@Z = msvcr110.??0invalid_scheduler_policy_key@Concurrency@@QAE@PBD@Z
??0invalid_scheduler_policy_key@Concurrency@@QAE@XZ = msvcr110.??0invalid_scheduler_policy_key@Concurrency@@QAE@XZ
??0invalid_scheduler_policy_thread_specification@Concurrency@@QAE@PBD@Z = msvcr110.??0invalid_scheduler_policy_thread_specification@Concurrency@@QAE@PBD@Z
??0invalid_scheduler_policy_thread_specification@Concurrency@@QAE@XZ = msvcr110.??0invalid_scheduler_policy_thread_specification@Concurrency@@QAE@XZ
??0invalid_scheduler_policy_value@Concurrency@@QAE@PBD@Z = msvcr110.??0invalid_scheduler_policy_value@Concurrency@@QAE@PBD@Z
??0invalid_scheduler_policy_value@Concurrency@@QAE@XZ = msvcr110.??0invalid_scheduler_policy_value@Concurrency@@QAE@XZ
??0message_not_found@Concurrency@@QAE@PBD@Z = msvcr110.??0message_not_found@Concurrency@@QAE@PBD@Z
??0message_not_found@Concurrency@@QAE@XZ = msvcr110.??0message_not_found@Concurrency@@QAE@XZ
??0missing_wait@Concurrency@@QAE@PBD@Z = msvcr110.??0missing_wait@Concurrency@@QAE@PBD@Z
??0missing_wait@Concurrency@@QAE@XZ = msvcr110.??0missing_wait@Concurrency@@QAE@XZ
??0nested_scheduler_missing_detach@Concurrency@@QAE@PBD@Z = msvcr110.??0nested_scheduler_missing_detach@Concurrency@@QAE@PBD@Z
??0nested_scheduler_missing_detach@Concurrency@@QAE@XZ = msvcr110.??0nested_scheduler_missing_detach@Concurrency@@QAE@XZ
??0operation_timed_out@Concurrency@@QAE@PBD@Z = msvcr110.??0operation_timed_out@Concurrency@@QAE@PBD@Z
??0operation_timed_out@Concurrency@@QAE@XZ = msvcr110.??0operation_timed_out@Concurrency@@QAE@XZ
??0reader_writer_lock@Concurrency@@QAE@XZ = msvcr110.??0reader_writer_lock@Concurrency@@QAE@XZ
??0scheduler_not_attached@Concurrency@@QAE@PBD@Z = msvcr110.??0scheduler_not_attached@Concurrency@@QAE@PBD@Z
??0scheduler_not_attached@Concurrency@@QAE@XZ = msvcr110.??0scheduler_not_attached@Concurrency@@QAE@XZ
??0scheduler_resource_allocation_error@Concurrency@@QAE@J@Z = msvcr110.??0scheduler_resource_allocation_error@Concurrency@@QAE@J@Z
??0scheduler_resource_allocation_error@Concurrency@@QAE@PBDJ@Z = msvcr110.??0scheduler_resource_allocation_error@Concurrency@@QAE@PBDJ@Z
??0scheduler_worker_creation_error@Concurrency@@QAE@J@Z = msvcr110.??0scheduler_worker_creation_error@Concurrency@@QAE@J@Z
??0scheduler_worker_creation_error@Concurrency@@QAE@PBDJ@Z = msvcr110.??0scheduler_worker_creation_error@Concurrency@@QAE@PBDJ@Z
??0scoped_lock@critical_section@Concurrency@@QAE@AAV12@@Z = msvcr110.??0scoped_lock@critical_section@Concurrency@@QAE@AAV12@@Z
??0scoped_lock@reader_writer_lock@Concurrency@@QAE@AAV12@@Z = msvcr110.??0scoped_lock@reader_writer_lock@Concurrency@@QAE@AAV12@@Z
??0scoped_lock_read@reader_writer_lock@Concurrency@@QAE@AAV12@@Z = msvcr110.??0scoped_lock_read@reader_writer_lock@Concurrency@@QAE@AAV12@@Z
??0task_canceled@Concurrency@@QAE@PBD@Z = msvcr110.??0task_canceled@Concurrency@@QAE@PBD@Z
??0task_canceled@Concurrency@@QAE@XZ = msvcr110.??0task_canceled@Concurrency@@QAE@XZ
??0unsupported_os@Concurrency@@QAE@PBD@Z = msvcr110.??0unsupported_os@Concurrency@@QAE@PBD@Z
??0unsupported_os@Concurrency@@QAE@XZ = msvcr110.??0unsupported_os@Concurrency@@QAE@XZ
??1SchedulerPolicy@Concurrency@@QAE@XZ = msvcr110.??1SchedulerPolicy@Concurrency@@QAE@XZ
??1_Cancellation_beacon@details@Concurrency@@QAE@XZ = msvcr110.??1_Cancellation_beacon@details@Concurrency@@QAE@XZ
??1_Condition_variable@details@Concurrency@@QAE@XZ = msvcr110.??1_Condition_variable@details@Concurrency@@QAE@XZ
??1_NonReentrantBlockingLock@details@Concurrency@@QAE@XZ = msvcr110.??1_NonReentrantBlockingLock@details@Concurrency@@QAE@XZ
??1_ReentrantBlockingLock@details@Concurrency@@QAE@XZ = msvcr110.??1_ReentrantBlockingLock@details@Concurrency@@QAE@XZ
??1_Scoped_lock@_NonReentrantPPLLock@details@Concurrency@@QAE@XZ = msvcr110.??1_Scoped_lock@_NonReentrantPPLLock@details@Concurrency@@QAE@XZ
??1_Scoped_lock@_ReentrantPPLLock@details@Concurrency@@QAE@XZ = msvcr110.??1_Scoped_lock@_ReentrantPPLLock@details@Concurrency@@QAE@XZ
??1_SpinLock@details@Concurrency@@QAE@XZ = msvcr110.??1_SpinLock@details@Concurrency@@QAE@XZ
??1_StructuredTaskCollection@details@Concurrency@@QAE@XZ = msvcr110.??1_StructuredTaskCollection@details@Concurrency@@QAE@XZ
??1_TaskCollection@details@Concurrency@@QAE@XZ = msvcr110.??1_TaskCollection@details@Concurrency@@QAE@XZ
??1_Timer@details@Concurrency@@MAE@XZ = msvcr110.??1_Timer@details@Concurrency@@MAE@XZ
??1__non_rtti_object@std@@UAE@XZ = msvcr110.??1__non_rtti_object@std@@UAE@XZ
??1bad_cast@std@@UAE@XZ = msvcr110.??1bad_cast@std@@UAE@XZ
??1bad_typeid@std@@UAE@XZ = msvcr110.??1bad_typeid@std@@UAE@XZ
??1critical_section@Concurrency@@QAE@XZ = msvcr110.??1critical_section@Concurrency@@QAE@XZ
??1event@Concurrency@@QAE@XZ = msvcr110.??1event@Concurrency@@QAE@XZ
??1exception@std@@UAE@XZ = msvcr110.??1exception@std@@UAE@XZ
??1reader_writer_lock@Concurrency@@QAE@XZ = msvcr110.??1reader_writer_lock@Concurrency@@QAE@XZ
??1scoped_lock@critical_section@Concurrency@@QAE@XZ = msvcr110.??1scoped_lock@critical_section@Concurrency@@QAE@XZ
??1scoped_lock@reader_writer_lock@Concurrency@@QAE@XZ = msvcr110.??1scoped_lock@reader_writer_lock@Concurrency@@QAE@XZ
??1scoped_lock_read@reader_writer_lock@Concurrency@@QAE@XZ = msvcr110.??1scoped_lock_read@reader_writer_lock@Concurrency@@QAE@XZ
??1type_info@@UAE@XZ = msvcr110.??1type_info@@UAE@XZ
??2@YAPAXI@Z = msvcr110.??2@YAPAXI@Z
??2@YAPAXIHPBDH@Z = msvcr110.??2@YAPAXIHPBDH@Z
??3@YAXPAX@Z = msvcr110.??3@YAXPAX@Z
??3@YAXPAXHPBDH@Z = msvcr110.??3@YAXPAXHPBDH@Z
??4?$_SpinWait@$00@details@Concurrency@@QAEAAV012@ABV012@@Z = msvcr110.??4?$_SpinWait@$00@details@Concurrency@@QAEAAV012@ABV012@@Z
??4?$_SpinWait@$0A@@details@Concurrency@@QAEAAV012@ABV012@@Z = msvcr110.??4?$_SpinWait@$0A@@details@Concurrency@@QAEAAV012@ABV012@@Z
??4SchedulerPolicy@Concurrency@@QAEAAV01@ABV01@@Z = msvcr110.??4SchedulerPolicy@Concurrency@@QAEAAV01@ABV01@@Z
??4__non_rtti_object@std@@QAEAAV01@ABV01@@Z = msvcr110.??4__non_rtti_object@std@@QAEAAV01@ABV01@@Z
??4bad_cast@std@@QAEAAV01@ABV01@@Z = msvcr110.??4bad_cast@std@@QAEAAV01@ABV01@@Z
??4bad_typeid@std@@QAEAAV01@ABV01@@Z = msvcr110.??4bad_typeid@std@@QAEAAV01@ABV01@@Z
??4exception@std@@QAEAAV01@ABV01@@Z = msvcr110.??4exception@std@@QAEAAV01@ABV01@@Z
??8type_info@@QBE_NABV0@@Z = msvcr110.??8type_info@@QBE_NABV0@@Z
??9type_info@@QBE_NABV0@@Z = msvcr110.??9type_info@@QBE_NABV0@@Z
??_7__non_rtti_object@std@@6B@ = msvcr110.??_7__non_rtti_object@std@@6B@
??_7bad_cast@std@@6B@ = msvcr110.??_7bad_cast@std@@6B@
??_7bad_typeid@std@@6B@ = msvcr110.??_7bad_typeid@std@@6B@
??_7exception@std@@6B@ = msvcr110.??_7exception@std@@6B@
??_F?$_SpinWait@$00@details@Concurrency@@QAEXXZ = msvcr110.??_F?$_SpinWait@$00@details@Concurrency@@QAEXXZ
??_F?$_SpinWait@$0A@@details@Concurrency@@QAEXXZ = msvcr110.??_F?$_SpinWait@$0A@@details@Concurrency@@QAEXXZ
??_F_Context@details@Concurrency@@QAEXXZ = msvcr110.??_F_Context@details@Concurrency@@QAEXXZ
??_F_Scheduler@details@Concurrency@@QAEXXZ = msvcr110.??_F_Scheduler@details@Concurrency@@QAEXXZ
??_Fbad_cast@std@@QAEXXZ = msvcr110.??_Fbad_cast@std@@QAEXXZ
??_Fbad_typeid@std@@QAEXXZ = msvcr110.??_Fbad_typeid@std@@QAEXXZ
??_U@YAPAXI@Z = msvcr110.??_U@YAPAXI@Z
??_U@YAPAXIHPBDH@Z = msvcr110.??_U@YAPAXIHPBDH@Z
??_V@YAXPAX@Z = msvcr110.??_V@YAXPAX@Z
??_V@YAXPAXHPBDH@Z = msvcr110.??_V@YAXPAXHPBDH@Z
?Alloc@Concurrency@@YAPAXI@Z = msvcr110.?Alloc@Concurrency@@YAPAXI@Z
?Block@Context@Concurrency@@SAXXZ = msvcr110.?Block@Context@Concurrency@@SAXXZ
?CaptureCallstack@platform@details@Concurrency@@YAIPAPAXII@Z = msvcr110.?CaptureCallstack@platform@details@Concurrency@@YAIPAPAXII@Z
?Create@CurrentScheduler@Concurrency@@SAXABVSchedulerPolicy@2@@Z = msvcr110.?Create@CurrentScheduler@Concurrency@@SAXABVSchedulerPolicy@2@@Z
?Create@Scheduler@Concurrency@@SAPAV12@ABVSchedulerPolicy@2@@Z = msvcr110.?Create@Scheduler@Concurrency@@SAPAV12@ABVSchedulerPolicy@2@@Z
?CreateResourceManager@Concurrency@@YAPAUIResourceManager@1@XZ = msvcr110.?CreateResourceManager@Concurrency@@YAPAUIResourceManager@1@XZ
?CreateScheduleGroup@CurrentScheduler@Concurrency@@SAPAVScheduleGroup@2@AAVlocation@2@@Z = msvcr110.?CreateScheduleGroup@CurrentScheduler@Concurrency@@SAPAVScheduleGroup@2@AAVlocation@2@@Z
?CreateScheduleGroup@CurrentScheduler@Concurrency@@SAPAVScheduleGroup@2@XZ = msvcr110.?CreateScheduleGroup@CurrentScheduler@Concurrency@@SAPAVScheduleGroup@2@XZ
?CurrentContext@Context@Concurrency@@SAPAV12@XZ = msvcr110.?CurrentContext@Context@Concurrency@@SAPAV12@XZ
?Detach@CurrentScheduler@Concurrency@@SAXXZ = msvcr110.?Detach@CurrentScheduler@Concurrency@@SAXXZ
?DisableTracing@Concurrency@@YAJXZ = msvcr110.?DisableTracing@Concurrency@@YAJXZ
?EnableTracing@Concurrency@@YAJXZ = msvcr110.?EnableTracing@Concurrency@@YAJXZ
?Free@Concurrency@@YAXPAX@Z = msvcr110.?Free@Concurrency@@YAXPAX@Z
?Get@CurrentScheduler@Concurrency@@SAPAVScheduler@2@XZ = msvcr110.?Get@CurrentScheduler@Concurrency@@SAPAVScheduler@2@XZ
?GetCurrentThreadId@platform@details@Concurrency@@YAJXZ = msvcr110.?GetCurrentThreadId@platform@details@Concurrency@@YAJXZ
?GetExecutionContextId@Concurrency@@YAIXZ = msvcr110.?GetExecutionContextId@Concurrency@@YAIXZ
?GetNumberOfVirtualProcessors@CurrentScheduler@Concurrency@@SAIXZ = msvcr110.?GetNumberOfVirtualProcessors@CurrentScheduler@Concurrency@@SAIXZ
?GetOSVersion@Concurrency@@YA?AW4OSVersion@IResourceManager@1@XZ = msvcr110.?GetOSVersion@Concurrency@@YA?AW4OSVersion@IResourceManager@1@XZ
?GetPolicy@CurrentScheduler@Concurrency@@SA?AVSchedulerPolicy@2@XZ = msvcr110.?GetPolicy@CurrentScheduler@Concurrency@@SA?AVSchedulerPolicy@2@XZ
?GetPolicyValue@SchedulerPolicy@Concurrency@@QBEIW4PolicyElementKey@2@@Z = msvcr110.?GetPolicyValue@SchedulerPolicy@Concurrency@@QBEIW4PolicyElementKey@2@@Z
?GetProcessorCount@Concurrency@@YAIXZ = msvcr110.?GetProcessorCount@Concurrency@@YAIXZ
?GetProcessorNodeCount@Concurrency@@YAIXZ = msvcr110.?GetProcessorNodeCount@Concurrency@@YAIXZ
?GetSchedulerId@Concurrency@@YAIXZ = msvcr110.?GetSchedulerId@Concurrency@@YAIXZ
?GetSharedTimerQueue@details@Concurrency@@YAPAXXZ = msvcr110.?GetSharedTimerQueue@details@Concurrency@@YAPAXXZ
?Id@Context@Concurrency@@SAIXZ = msvcr110.?Id@Context@Concurrency@@SAIXZ
?Id@CurrentScheduler@Concurrency@@SAIXZ = msvcr110.?Id@CurrentScheduler@Concurrency@@SAIXZ
?IsAvailableLocation@CurrentScheduler@Concurrency@@SA_NABVlocation@2@@Z = msvcr110.?IsAvailableLocation@CurrentScheduler@Concurrency@@SA_NABVlocation@2@@Z
?IsCurrentTaskCollectionCanceling@Context@Concurrency@@SA_NXZ = msvcr110.?IsCurrentTaskCollectionCanceling@Context@Concurrency@@SA_NXZ
?Log2@details@Concurrency@@YAKI@Z = msvcr110.?Log2@details@Concurrency@@YAKI@Z
?Oversubscribe@Context@Concurrency@@SAX_N@Z = msvcr110.?Oversubscribe@Context@Concurrency@@SAX_N@Z
?RegisterShutdownEvent@CurrentScheduler@Concurrency@@SAXPAX@Z = msvcr110.?RegisterShutdownEvent@CurrentScheduler@Concurrency@@SAXPAX@Z
?ResetDefaultSchedulerPolicy@Scheduler@Concurrency@@SAXXZ = msvcr110.?ResetDefaultSchedulerPolicy@Scheduler@Concurrency@@SAXXZ
?ScheduleGroupId@Context@Concurrency@@SAIXZ = msvcr110.?ScheduleGroupId@Context@Concurrency@@SAIXZ
?ScheduleTask@CurrentScheduler@Concurrency@@SAXP6AXPAX@Z0@Z = msvcr110.?ScheduleTask@CurrentScheduler@Concurrency@@SAXP6AXPAX@Z0@Z
?ScheduleTask@CurrentScheduler@Concurrency@@SAXP6AXPAX@Z0AAVlocation@2@@Z = msvcr110.?ScheduleTask@CurrentScheduler@Concurrency@@SAXP6AXPAX@Z0AAVlocation@2@@Z
?SetConcurrencyLimits@SchedulerPolicy@Concurrency@@QAEXII@Z = msvcr110.?SetConcurrencyLimits@SchedulerPolicy@Concurrency@@QAEXII@Z
?SetDefaultSchedulerPolicy@Scheduler@Concurrency@@SAXABVSchedulerPolicy@2@@Z = msvcr110.?SetDefaultSchedulerPolicy@Scheduler@Concurrency@@SAXABVSchedulerPolicy@2@@Z
?SetPolicyValue@SchedulerPolicy@Concurrency@@QAEIW4PolicyElementKey@2@I@Z = msvcr110.?SetPolicyValue@SchedulerPolicy@Concurrency@@QAEIW4PolicyElementKey@2@I@Z
?VirtualProcessorId@Context@Concurrency@@SAIXZ = msvcr110.?VirtualProcessorId@Context@Concurrency@@SAIXZ
?Yield@Context@Concurrency@@SAXXZ = msvcr110.?Yield@Context@Concurrency@@SAXXZ
?_Abort@_StructuredTaskCollection@details@Concurrency@@AAEXXZ = msvcr110.?_Abort@_StructuredTaskCollection@details@Concurrency@@AAEXXZ
?_Acquire@_NonReentrantBlockingLock@details@Concurrency@@QAEXXZ = msvcr110.?_Acquire@_NonReentrantBlockingLock@details@Concurrency@@QAEXXZ
?_Acquire@_NonReentrantPPLLock@details@Concurrency@@QAEXPAX@Z = msvcr110.?_Acquire@_NonReentrantPPLLock@details@Concurrency@@QAEXPAX@Z
?_Acquire@_ReentrantBlockingLock@details@Concurrency@@QAEXXZ = msvcr110.?_Acquire@_ReentrantBlockingLock@details@Concurrency@@QAEXXZ
?_Acquire@_ReentrantLock@details@Concurrency@@QAEXXZ = msvcr110.?_Acquire@_ReentrantLock@details@Concurrency@@QAEXXZ
?_Acquire@_ReentrantPPLLock@details@Concurrency@@QAEXPAX@Z = msvcr110.?_Acquire@_ReentrantPPLLock@details@Concurrency@@QAEXPAX@Z
?_AcquireRead@_ReaderWriterLock@details@Concurrency@@QAEXXZ = msvcr110.?_AcquireRead@_ReaderWriterLock@details@Concurrency@@QAEXXZ
?_AcquireWrite@_ReaderWriterLock@details@Concurrency@@QAEXXZ = msvcr110.?_AcquireWrite@_ReaderWriterLock@details@Concurrency@@QAEXXZ
?_Cancel@_StructuredTaskCollection@details@Concurrency@@QAEXXZ = msvcr110.?_Cancel@_StructuredTaskCollection@details@Concurrency@@QAEXXZ
?_Cancel@_TaskCollection@details@Concurrency@@QAEXXZ = msvcr110.?_Cancel@_TaskCollection@details@Concurrency@@QAEXXZ
?_CheckTaskCollection@_UnrealizedChore@details@Concurrency@@IAEXXZ = msvcr110.?_CheckTaskCollection@_UnrealizedChore@details@Concurrency@@IAEXXZ
?_CleanupToken@_StructuredTaskCollection@details@Concurrency@@AAEXXZ = msvcr110.?_CleanupToken@_StructuredTaskCollection@details@Concurrency@@AAEXXZ
?_ConcRT_CoreAssert@details@Concurrency@@YAXPBD0H@Z = msvcr110.?_ConcRT_CoreAssert@details@Concurrency@@YAXPBD0H@Z
?_ConcRT_Trace@details@Concurrency@@YAXHPB_WZZ = msvcr110.?_ConcRT_Trace@details@Concurrency@@YAXHPB_WZZ
?_Confirm_cancel@_Cancellation_beacon@details@Concurrency@@QAE_NXZ = msvcr110.?_Confirm_cancel@_Cancellation_beacon@details@Concurrency@@QAE_NXZ
?_Copy_str@exception@std@@AAEXPBD@Z = msvcr110.?_Copy_str@exception@std@@AAEXPBD@Z
?_CurrentContext@_Context@details@Concurrency@@SA?AV123@XZ = msvcr110.?_CurrentContext@_Context@details@Concurrency@@SA?AV123@XZ
?_Current_node@location@Concurrency@@SA?AV12@XZ = msvcr110.?_Current_node@location@Concurrency@@SA?AV12@XZ
?_Destroy@_AsyncTaskCollection@details@Concurrency@@EAEXXZ = msvcr110.?_Destroy@_AsyncTaskCollection@details@Concurrency@@EAEXXZ
?_DoYield@?$_SpinWait@$00@details@Concurrency@@IAEXXZ = msvcr110.?_DoYield@?$_SpinWait@$00@details@Concurrency@@IAEXXZ
?_DoYield@?$_SpinWait@$0A@@details@Concurrency@@IAEXXZ = msvcr110.?_DoYield@?$_SpinWait@$0A@@details@Concurrency@@IAEXXZ
?_Get@_CurrentScheduler@details@Concurrency@@SA?AV_Scheduler@23@XZ = msvcr110.?_Get@_CurrentScheduler@details@Concurrency@@SA?AV_Scheduler@23@XZ
?_GetConcRTTraceInfo@Concurrency@@YAPBU_CONCRT_TRACE_INFO@details@1@XZ = msvcr110.?_GetConcRTTraceInfo@Concurrency@@YAPBU_CONCRT_TRACE_INFO@details@1@XZ
?_GetConcurrency@details@Concurrency@@YAIXZ = msvcr110.?_GetConcurrency@details@Concurrency@@YAIXZ
?_GetCurrentInlineDepth@_StackGuard@details@Concurrency@@CAAAIXZ = msvcr110.?_GetCurrentInlineDepth@_StackGuard@details@Concurrency@@CAAAIXZ
?_GetNumberOfVirtualProcessors@_CurrentScheduler@details@Concurrency@@SAIXZ = msvcr110.?_GetNumberOfVirtualProcessors@_CurrentScheduler@details@Concurrency@@SAIXZ
?_GetScheduler@_Scheduler@details@Concurrency@@QAEPAVScheduler@3@XZ = msvcr110.?_GetScheduler@_Scheduler@details@Concurrency@@QAEPAVScheduler@3@XZ
?_Id@_CurrentScheduler@details@Concurrency@@SAIXZ = msvcr110.?_Id@_CurrentScheduler@details@Concurrency@@SAIXZ
?_IsCanceling@_StructuredTaskCollection@details@Concurrency@@QAE_NXZ = msvcr110.?_IsCanceling@_StructuredTaskCollection@details@Concurrency@@QAE_NXZ
?_IsCanceling@_TaskCollection@details@Concurrency@@QAE_NXZ = msvcr110.?_IsCanceling@_TaskCollection@details@Concurrency@@QAE_NXZ
?_IsSynchronouslyBlocked@_Context@details@Concurrency@@QBE_NXZ = msvcr110.?_IsSynchronouslyBlocked@_Context@details@Concurrency@@QBE_NXZ
?_Name_base@type_info@@CAPBDPBV1@PAU__type_info_node@@@Z = msvcr110.?_Name_base@type_info@@CAPBDPBV1@PAU__type_info_node@@@Z
?_Name_base_internal@type_info@@CAPBDPBV1@PAU__type_info_node@@@Z = msvcr110.?_Name_base_internal@type_info@@CAPBDPBV1@PAU__type_info_node@@@Z
?_NewCollection@_AsyncTaskCollection@details@Concurrency@@SAPAV123@PAV_CancellationTokenState@23@@Z = msvcr110.?_NewCollection@_AsyncTaskCollection@details@Concurrency@@SAPAV123@PAV_CancellationTokenState@23@@Z
?_NumberOfSpins@?$_SpinWait@$00@details@Concurrency@@IAEKXZ = msvcr110.?_NumberOfSpins@?$_SpinWait@$00@details@Concurrency@@IAEKXZ
?_NumberOfSpins@?$_SpinWait@$0A@@details@Concurrency@@IAEKXZ = msvcr110.?_NumberOfSpins@?$_SpinWait@$0A@@details@Concurrency@@IAEKXZ
?_Oversubscribe@_Context@details@Concurrency@@SAX_N@Z = msvcr110.?_Oversubscribe@_Context@details@Concurrency@@SAX_N@Z
?_Reference@_Scheduler@details@Concurrency@@QAEIXZ = msvcr110.?_Reference@_Scheduler@details@Concurrency@@QAEIXZ
?_Release@_NonReentrantBlockingLock@details@Concurrency@@QAEXXZ = msvcr110.?_Release@_NonReentrantBlockingLock@details@Concurrency@@QAEXXZ
?_Release@_NonReentrantPPLLock@details@Concurrency@@QAEXXZ = msvcr110.?_Release@_NonReentrantPPLLock@details@Concurrency@@QAEXXZ
?_Release@_ReentrantBlockingLock@details@Concurrency@@QAEXXZ = msvcr110.?_Release@_ReentrantBlockingLock@details@Concurrency@@QAEXXZ
?_Release@_ReentrantLock@details@Concurrency@@QAEXXZ = msvcr110.?_Release@_ReentrantLock@details@Concurrency@@QAEXXZ
?_Release@_ReentrantPPLLock@details@Concurrency@@QAEXXZ = msvcr110.?_Release@_ReentrantPPLLock@details@Concurrency@@QAEXXZ
?_Release@_Scheduler@details@Concurrency@@QAEIXZ = msvcr110.?_Release@_Scheduler@details@Concurrency@@QAEIXZ
?_ReleaseRead@_ReaderWriterLock@details@Concurrency@@QAEXXZ = msvcr110.?_ReleaseRead@_ReaderWriterLock@details@Concurrency@@QAEXXZ
?_ReleaseWrite@_ReaderWriterLock@details@Concurrency@@QAEXXZ = msvcr110.?_ReleaseWrite@_ReaderWriterLock@details@Concurrency@@QAEXXZ
?_ReportUnobservedException@details@Concurrency@@YAXXZ = msvcr110.?_ReportUnobservedException@details@Concurrency@@YAXXZ
?_Reset@?$_SpinWait@$00@details@Concurrency@@IAEXXZ = msvcr110.?_Reset@?$_SpinWait@$00@details@Concurrency@@IAEXXZ
?_Reset@?$_SpinWait@$0A@@details@Concurrency@@IAEXXZ = msvcr110.?_Reset@?$_SpinWait@$0A@@details@Concurrency@@IAEXXZ
?_RunAndWait@_StructuredTaskCollection@details@Concurrency@@QAG?AW4_TaskCollectionStatus@23@PAV_UnrealizedChore@23@@Z = msvcr110.?_RunAndWait@_StructuredTaskCollection@details@Concurrency@@QAG?AW4_TaskCollectionStatus@23@PAV_UnrealizedChore@23@@Z
?_RunAndWait@_TaskCollection@details@Concurrency@@QAG?AW4_TaskCollectionStatus@23@PAV_UnrealizedChore@23@@Z = msvcr110.?_RunAndWait@_TaskCollection@details@Concurrency@@QAG?AW4_TaskCollectionStatus@23@PAV_UnrealizedChore@23@@Z
?_Schedule@_StructuredTaskCollection@details@Concurrency@@QAEXPAV_UnrealizedChore@23@@Z = msvcr110.?_Schedule@_StructuredTaskCollection@details@Concurrency@@QAEXPAV_UnrealizedChore@23@@Z
?_Schedule@_StructuredTaskCollection@details@Concurrency@@QAEXPAV_UnrealizedChore@23@PAVlocation@3@@Z = msvcr110.?_Schedule@_StructuredTaskCollection@details@Concurrency@@QAEXPAV_UnrealizedChore@23@PAVlocation@3@@Z
?_Schedule@_TaskCollection@details@Concurrency@@QAEXPAV_UnrealizedChore@23@@Z = msvcr110.?_Schedule@_TaskCollection@details@Concurrency@@QAEXPAV_UnrealizedChore@23@@Z
?_Schedule@_TaskCollection@details@Concurrency@@QAEXPAV_UnrealizedChore@23@PAVlocation@3@@Z = msvcr110.?_Schedule@_TaskCollection@details@Concurrency@@QAEXPAV_UnrealizedChore@23@PAVlocation@3@@Z
?_ScheduleTask@_CurrentScheduler@details@Concurrency@@SAXP6AXPAX@Z0@Z = msvcr110.?_ScheduleTask@_CurrentScheduler@details@Concurrency@@SAXP6AXPAX@Z0@Z
?_SetSpinCount@?$_SpinWait@$00@details@Concurrency@@QAEXI@Z = msvcr110.?_SetSpinCount@?$_SpinWait@$00@details@Concurrency@@QAEXI@Z
?_SetSpinCount@?$_SpinWait@$0A@@details@Concurrency@@QAEXI@Z = msvcr110.?_SetSpinCount@?$_SpinWait@$0A@@details@Concurrency@@QAEXI@Z
?_SetUnobservedExceptionHandler@details@Concurrency@@YAXP6AXXZ@Z = msvcr110.?_SetUnobservedExceptionHandler@details@Concurrency@@YAXP6AXXZ@Z
?_ShouldSpinAgain@?$_SpinWait@$00@details@Concurrency@@IAE_NXZ = msvcr110.?_ShouldSpinAgain@?$_SpinWait@$00@details@Concurrency@@IAE_NXZ
?_ShouldSpinAgain@?$_SpinWait@$0A@@details@Concurrency@@IAE_NXZ = msvcr110.?_ShouldSpinAgain@?$_SpinWait@$0A@@details@Concurrency@@IAE_NXZ
?_SpinOnce@?$_SpinWait@$00@details@Concurrency@@QAE_NXZ = msvcr110.?_SpinOnce@?$_SpinWait@$00@details@Concurrency@@QAE_NXZ
?_SpinOnce@?$_SpinWait@$0A@@details@Concurrency@@QAE_NXZ = msvcr110.?_SpinOnce@?$_SpinWait@$0A@@details@Concurrency@@QAE_NXZ
?_SpinYield@Context@Concurrency@@SAXXZ = msvcr110.?_SpinYield@Context@Concurrency@@SAXXZ
?_Start@_Timer@details@Concurrency@@IAEXXZ = msvcr110.?_Start@_Timer@details@Concurrency@@IAEXXZ
?_Stop@_Timer@details@Concurrency@@IAEXXZ = msvcr110.?_Stop@_Timer@details@Concurrency@@IAEXXZ
?_Tidy@exception@std@@AAEXXZ = msvcr110.?_Tidy@exception@std@@AAEXXZ
?_Trace_agents@Concurrency@@YAXW4Agents_EventType@1@_JZZ = msvcr110.?_Trace_agents@Concurrency@@YAXW4Agents_EventType@1@_JZZ
?_Trace_ppl_function@Concurrency@@YAXABU_GUID@@EW4ConcRT_EventType@1@@Z = msvcr110.?_Trace_ppl_function@Concurrency@@YAXABU_GUID@@EW4ConcRT_EventType@1@@Z
?_TryAcquire@_NonReentrantBlockingLock@details@Concurrency@@QAE_NXZ = msvcr110.?_TryAcquire@_NonReentrantBlockingLock@details@Concurrency@@QAE_NXZ
?_TryAcquire@_ReentrantBlockingLock@details@Concurrency@@QAE_NXZ = msvcr110.?_TryAcquire@_ReentrantBlockingLock@details@Concurrency@@QAE_NXZ
?_TryAcquire@_ReentrantLock@details@Concurrency@@QAE_NXZ = msvcr110.?_TryAcquire@_ReentrantLock@details@Concurrency@@QAE_NXZ
?_TryAcquireWrite@_ReaderWriterLock@details@Concurrency@@QAE_NXZ = msvcr110.?_TryAcquireWrite@_ReaderWriterLock@details@Concurrency@@QAE_NXZ
?_Type_info_dtor@type_info@@CAXPAV1@@Z = msvcr110.?_Type_info_dtor@type_info@@CAXPAV1@@Z
?_Type_info_dtor_internal@type_info@@CAXPAV1@@Z = msvcr110.?_Type_info_dtor_internal@type_info@@CAXPAV1@@Z
?_UnderlyingYield@details@Concurrency@@YAXXZ = msvcr110.?_UnderlyingYield@details@Concurrency@@YAXXZ
?_ValidateExecute@@YAHP6GHXZ@Z = msvcr110.?_ValidateExecute@@YAHP6GHXZ@Z
?_ValidateRead@@YAHPBXI@Z = msvcr110.?_ValidateRead@@YAHPBXI@Z
?_ValidateWrite@@YAHPAXI@Z = msvcr110.?_ValidateWrite@@YAHPAXI@Z
?_Value@_SpinCount@details@Concurrency@@SAIXZ = msvcr110.?_Value@_SpinCount@details@Concurrency@@SAIXZ
?_Yield@_Context@details@Concurrency@@SAXXZ = msvcr110.?_Yield@_Context@details@Concurrency@@SAXXZ
?__ExceptionPtrAssign@@YAXPAXPBX@Z = msvcr110.?__ExceptionPtrAssign@@YAXPAXPBX@Z
?__ExceptionPtrCompare@@YA_NPBX0@Z = msvcr110.?__ExceptionPtrCompare@@YA_NPBX0@Z
?__ExceptionPtrCopy@@YAXPAXPBX@Z = msvcr110.?__ExceptionPtrCopy@@YAXPAXPBX@Z
?__ExceptionPtrCopyException@@YAXPAXPBX1@Z = msvcr110.?__ExceptionPtrCopyException@@YAXPAXPBX1@Z
?__ExceptionPtrCreate@@YAXPAX@Z = msvcr110.?__ExceptionPtrCreate@@YAXPAX@Z
?__ExceptionPtrCurrentException@@YAXPAX@Z = msvcr110.?__ExceptionPtrCurrentException@@YAXPAX@Z
?__ExceptionPtrDestroy@@YAXPAX@Z = msvcr110.?__ExceptionPtrDestroy@@YAXPAX@Z
?__ExceptionPtrRethrow@@YAXPBX@Z = msvcr110.?__ExceptionPtrRethrow@@YAXPBX@Z
?__ExceptionPtrSwap@@YAXPAX0@Z = msvcr110.?__ExceptionPtrSwap@@YAXPAX0@Z
?__ExceptionPtrToBool@@YA_NPBX@Z = msvcr110.?__ExceptionPtrToBool@@YA_NPBX@Z
__uncaught_exception = msvcr110.__uncaught_exception
?_inconsistency@@YAXXZ = msvcr110.?_inconsistency@@YAXXZ
?_invalid_parameter@@YAXPBG00II@Z = msvcr110.?_invalid_parameter@@YAXPBG00II@Z
?_is_exception_typeof@@YAHABVtype_info@@PAU_EXCEPTION_POINTERS@@@Z = msvcr110.?_is_exception_typeof@@YAHABVtype_info@@PAU_EXCEPTION_POINTERS@@@Z
?_name_internal_method@type_info@@QBEPBDPAU__type_info_node@@@Z = msvcr110.?_name_internal_method@type_info@@QBEPBDPAU__type_info_node@@@Z
?_open@@YAHPBDHH@Z = msvcr110.?_open@@YAHPBDHH@Z
?_query_new_handler@@YAP6AHI@ZXZ = msvcr110.?_query_new_handler@@YAP6AHI@ZXZ
?_query_new_mode@@YAHXZ = msvcr110.?_query_new_mode@@YAHXZ
?_set_new_handler@@YAP6AHI@ZH@Z = msvcr110.?_set_new_handler@@YAP6AHI@ZH@Z
?_set_new_handler@@YAP6AHI@ZP6AHI@Z@Z = msvcr110.?_set_new_handler@@YAP6AHI@ZP6AHI@Z@Z
?_set_new_mode@@YAHH@Z = msvcr110.?_set_new_mode@@YAHH@Z
?_set_se_translator@@YAP6AXIPAU_EXCEPTION_POINTERS@@@ZH@Z = msvcr110.?_set_se_translator@@YAP6AXIPAU_EXCEPTION_POINTERS@@@ZH@Z
?_set_se_translator@@YAP6AXIPAU_EXCEPTION_POINTERS@@@ZP6AXI0@Z@Z = msvcr110.?_set_se_translator@@YAP6AXIPAU_EXCEPTION_POINTERS@@@ZP6AXI0@Z@Z
?_sopen@@YAHPBDHHH@Z = msvcr110.?_sopen@@YAHPBDHHH@Z
?_type_info_dtor_internal_method@type_info@@QAEXXZ = msvcr110.?_type_info_dtor_internal_method@type_info@@QAEXXZ
?_wopen@@YAHPB_WHH@Z = msvcr110.?_wopen@@YAHPB_WHH@Z
?_wsopen@@YAHPB_WHHH@Z = msvcr110.?_wsopen@@YAHPB_WHHH@Z
?before@type_info@@QBE_NABV1@@Z = msvcr110.?before@type_info@@QBE_NABV1@@Z
?current@location@Concurrency@@SA?AV12@XZ = msvcr110.?current@location@Concurrency@@SA?AV12@XZ
?from_numa_node@location@Concurrency@@SA?AV12@G@Z = msvcr110.?from_numa_node@location@Concurrency@@SA?AV12@G@Z
?get_error_code@scheduler_resource_allocation_error@Concurrency@@QBEJXZ = msvcr110.?get_error_code@scheduler_resource_allocation_error@Concurrency@@QBEJXZ
?lock@critical_section@Concurrency@@QAEXXZ = msvcr110.?lock@critical_section@Concurrency@@QAEXXZ
?lock@reader_writer_lock@Concurrency@@QAEXXZ = msvcr110.?lock@reader_writer_lock@Concurrency@@QAEXXZ
?lock_read@reader_writer_lock@Concurrency@@QAEXXZ = msvcr110.?lock_read@reader_writer_lock@Concurrency@@QAEXXZ
?name@type_info@@QBEPBDPAU__type_info_node@@@Z = msvcr110.?name@type_info@@QBEPBDPAU__type_info_node@@@Z
?native_handle@critical_section@Concurrency@@QAEAAV12@XZ = msvcr110.?native_handle@critical_section@Concurrency@@QAEAAV12@XZ
?notify_all@_Condition_variable@details@Concurrency@@QAEXXZ = msvcr110.?notify_all@_Condition_variable@details@Concurrency@@QAEXXZ
?notify_one@_Condition_variable@details@Concurrency@@QAEXXZ = msvcr110.?notify_one@_Condition_variable@details@Concurrency@@QAEXXZ
?raw_name@type_info@@QBEPBDXZ = msvcr110.?raw_name@type_info@@QBEPBDXZ
?reset@event@Concurrency@@QAEXXZ = msvcr110.?reset@event@Concurrency@@QAEXXZ
?set@event@Concurrency@@QAEXXZ = msvcr110.?set@event@Concurrency@@QAEXXZ
?set_new_handler@@YAP6AXXZP6AXXZ@Z = msvcr110.?set_new_handler@@YAP6AXXZP6AXXZ@Z
?set_task_execution_resources@Concurrency@@YAXGPAU_GROUP_AFFINITY@@@Z = msvcr110.?set_task_execution_resources@Concurrency@@YAXGPAU_GROUP_AFFINITY@@@Z
?set_task_execution_resources@Concurrency@@YAXK@Z = msvcr110.?set_task_execution_resources@Concurrency@@YAXK@Z
?set_terminate@@YAP6AXXZH@Z = msvcr110.?set_terminate@@YAP6AXXZH@Z
?set_terminate@@YAP6AXXZP6AXXZ@Z = msvcr110.?set_terminate@@YAP6AXXZP6AXXZ@Z
?set_unexpected@@YAP6AXXZH@Z = msvcr110.?set_unexpected@@YAP6AXXZH@Z
?set_unexpected@@YAP6AXXZP6AXXZ@Z = msvcr110.?set_unexpected@@YAP6AXXZP6AXXZ@Z
?swprintf@@YAHPAGIPBGZZ = msvcr110.?swprintf@@YAHPAGIPBGZZ
?swprintf@@YAHPA_WIPB_WZZ = msvcr110.?swprintf@@YAHPA_WIPB_WZZ
?terminate@@YAXXZ = msvcr110.?terminate@@YAXXZ
?try_lock@critical_section@Concurrency@@QAE_NXZ = msvcr110.?try_lock@critical_section@Concurrency@@QAE_NXZ
?try_lock@reader_writer_lock@Concurrency@@QAE_NXZ = msvcr110.?try_lock@reader_writer_lock@Concurrency@@QAE_NXZ
?try_lock_for@critical_section@Concurrency@@QAE_NI@Z = msvcr110.?try_lock_for@critical_section@Concurrency@@QAE_NI@Z
?try_lock_read@reader_writer_lock@Concurrency@@QAE_NXZ = msvcr110.?try_lock_read@reader_writer_lock@Concurrency@@QAE_NXZ
?unexpected@@YAXXZ = msvcr110.?unexpected@@YAXXZ
?unlock@critical_section@Concurrency@@QAEXXZ = msvcr110.?unlock@critical_section@Concurrency@@QAEXXZ
?unlock@reader_writer_lock@Concurrency@@QAEXXZ = msvcr110.?unlock@reader_writer_lock@Concurrency@@QAEXXZ
?vswprintf@@YAHPA_WIPB_WPAD@Z = msvcr110.?vswprintf@@YAHPA_WIPB_WPAD@Z
?wait@Concurrency@@YAXI@Z = msvcr110.?wait@Concurrency@@YAXI@Z
?wait@_Condition_variable@details@Concurrency@@QAEXAAVcritical_section@3@@Z = msvcr110.?wait@_Condition_variable@details@Concurrency@@QAEXAAVcritical_section@3@@Z
?wait@event@Concurrency@@QAEII@Z = msvcr110.?wait@event@Concurrency@@QAEII@Z
?wait_for@_Condition_variable@details@Concurrency@@QAE_NAAVcritical_section@3@I@Z = msvcr110.?wait_for@_Condition_variable@details@Concurrency@@QAE_NAAVcritical_section@3@I@Z
?wait_for_multiple@event@Concurrency@@SAIPAPAV12@I_NI@Z = msvcr110.?wait_for_multiple@event@Concurrency@@SAIPAPAV12@I_NI@Z
?what@exception@std@@UBEPBDXZ = msvcr110.?what@exception@std@@UBEPBDXZ
$I10_OUTPUT = msvcr110.$I10_OUTPUT
_CIacos = msvcr110._CIacos
_CIasin = msvcr110._CIasin
_CIatan = msvcr110._CIatan
_CIatan2 = msvcr110._CIatan2
_CIcos = msvcr110._CIcos
_CIcosh = msvcr110._CIcosh
_CIexp = msvcr110._CIexp
_CIfmod = msvcr110._CIfmod
_CIlog = msvcr110._CIlog
_CIlog10 = msvcr110._CIlog10
_CIpow = msvcr110._CIpow
_CIsin = msvcr110._CIsin
_CIsinh = msvcr110._CIsinh
_CIsqrt = msvcr110._CIsqrt
_CItan = msvcr110._CItan
_CItanh = msvcr110._CItanh
_CRT_RTC_INIT = msvcr110._CRT_RTC_INIT
_CRT_RTC_INITW = msvcr110._CRT_RTC_INITW
_Cbuild = msvcr110._Cbuild
_CreateFrameInfo = msvcr110._CreateFrameInfo
_CxxThrowException = msvcr110._CxxThrowException
_EH_prolog = msvcr110._EH_prolog
_FCbuild = msvcr110._FCbuild
_FindAndUnlinkFrame = msvcr110._FindAndUnlinkFrame
_Getdays = msvcr110._Getdays
_Getmonths = msvcr110._Getmonths
_Gettnames = msvcr110._Gettnames
_HUGE = msvcr110._HUGE
_IsExceptionObjectToBeDestroyed = msvcr110._IsExceptionObjectToBeDestroyed
_LCbuild = msvcr110._LCbuild
_NLG_Dispatch2 = msvcr110._NLG_Dispatch2
_NLG_Return = msvcr110._NLG_Return
_NLG_Return2 = msvcr110._NLG_Return2
_SetWinRTOutOfMemoryExceptionCallback = msvcr110._SetWinRTOutOfMemoryExceptionCallback
_Strftime = msvcr110._Strftime
_W_Getdays = msvcr110._W_Getdays
_W_Getmonths = msvcr110._W_Getmonths
_W_Gettnames = msvcr110._W_Gettnames
_Wcsftime = msvcr110._Wcsftime
_XcptFilter = msvcr110._XcptFilter
__AdjustPointer = msvcr110.__AdjustPointer
__BuildCatchObject = msvcr110.__BuildCatchObject
__BuildCatchObjectHelper = msvcr110.__BuildCatchObjectHelper
__CppXcptFilter = msvcr110.__CppXcptFilter
__CxxDetectRethrow = msvcr110.__CxxDetectRethrow
__CxxExceptionFilter = msvcr110.__CxxExceptionFilter
__CxxFrameHandler = msvcr110.__CxxFrameHandler
__CxxFrameHandler2 = msvcr110.__CxxFrameHandler2
__CxxFrameHandler3 = msvcr110.__CxxFrameHandler3
__CxxLongjmpUnwind = msvcr110.__CxxLongjmpUnwind
__CxxQueryExceptionSize = msvcr110.__CxxQueryExceptionSize
__CxxRegisterExceptionObject = msvcr110.__CxxRegisterExceptionObject
__CxxUnregisterExceptionObject = msvcr110.__CxxUnregisterExceptionObject
__DestructExceptionObject = msvcr110.__DestructExceptionObject
__FrameUnwindFilter = msvcr110.__FrameUnwindFilter
__GetPlatformExceptionInfo = msvcr110.__GetPlatformExceptionInfo
__RTCastToVoid = msvcr110.__RTCastToVoid
__RTDynamicCast = msvcr110.__RTDynamicCast
__RTtypeid = msvcr110.__RTtypeid
__STRINGTOLD = msvcr110.__STRINGTOLD
__STRINGTOLD_L = msvcr110.__STRINGTOLD_L
__TypeMatch = msvcr110.__TypeMatch
___lc_codepage_func = msvcr110.___lc_codepage_func
___lc_collate_cp_func = msvcr110.___lc_collate_cp_func
___lc_locale_name_func = msvcr110.___lc_locale_name_func
___mb_cur_max_func = msvcr110.___mb_cur_max_func
___mb_cur_max_l_func = msvcr110.___mb_cur_max_l_func
___setlc_active_func = msvcr110.___setlc_active_func
___unguarded_readlc_active_add_func = msvcr110.___unguarded_readlc_active_add_func
__argc = msvcr110.__argc
__argv = msvcr110.__argv
__badioinfo = msvcr110.__badioinfo
__clean_type_info_names_internal = msvcr110.__clean_type_info_names_internal
__control87_2 = msvcr110.__control87_2
__create_locale = msvcr110.__create_locale
__crtCompareStringA = msvcr110.__crtCompareStringA
__crtCompareStringEx = msvcr110.__crtCompareStringEx
__crtCompareStringW = msvcr110.__crtCompareStringW
__crtCreateEventExW = msvcr110.__crtCreateEventExW
__crtCreateSemaphoreExW = msvcr110.__crtCreateSemaphoreExW
__crtCreateSymbolicLinkW = msvcr110.__crtCreateSymbolicLinkW
__crtEnumSystemLocalesEx = msvcr110.__crtEnumSystemLocalesEx
__crtFlsAlloc = msvcr110.__crtFlsAlloc
__crtFlsFree = msvcr110.__crtFlsFree
__crtFlsGetValue = msvcr110.__crtFlsGetValue
__crtFlsSetValue = msvcr110.__crtFlsSetValue
__crtGetDateFormatEx = msvcr110.__crtGetDateFormatEx
__crtGetFileInformationByHandleEx = msvcr110.__crtGetFileInformationByHandleEx
__crtGetLocaleInfoEx = msvcr110.__crtGetLocaleInfoEx
__crtGetShowWindowMode = msvcr110.__crtGetShowWindowMode
__crtGetTickCount64 = msvcr110.__crtGetTickCount64
__crtGetTimeFormatEx = msvcr110.__crtGetTimeFormatEx
__crtGetUserDefaultLocaleName = msvcr110.__crtGetUserDefaultLocaleName
__crtInitializeCriticalSectionEx = msvcr110.__crtInitializeCriticalSectionEx
__crtIsPackagedApp = msvcr110.__crtIsPackagedApp
__crtIsValidLocaleName = msvcr110.__crtIsValidLocaleName
__crtLCMapStringA = msvcr110.__crtLCMapStringA
__crtLCMapStringEx = msvcr110.__crtLCMapStringEx
__crtLCMapStringW = msvcr110.__crtLCMapStringW
__crtSetFileInformationByHandle = msvcr110.__crtSetFileInformationByHandle
__crtSetThreadStackGuarantee = msvcr110.__crtSetThreadStackGuarantee
__crtSetUnhandledExceptionFilter = msvcr110.__crtSetUnhandledExceptionFilter
__crtSleep = msvcr110.__crtSleep
__crtTerminateProcess = msvcr110.__crtTerminateProcess
__crtUnhandledException = msvcr110.__crtUnhandledException
__daylight = msvcr110.__daylight
__dllonexit = msvcr110.__dllonexit
__doserrno = msvcr110.__doserrno
__dstbias = msvcr110.__dstbias
__fpecode = msvcr110.__fpecode
__free_locale = msvcr110.__free_locale
__get_current_locale = msvcr110.__get_current_locale
__get_flsindex = msvcr110.__get_flsindex
__get_tlsindex = msvcr110.__get_tlsindex
__getmainargs = msvcr110.__getmainargs
__initenv = msvcr110.__initenv
__iob_func = msvcr110.__iob_func
__isascii = msvcr110.__isascii
__iscsym = msvcr110.__iscsym
__iscsymf = msvcr110.__iscsymf
__iswcsym = msvcr110.__iswcsym
__iswcsymf = msvcr110.__iswcsymf
__lconv = msvcr110.__lconv
__lconv_init = msvcr110.__lconv_init
__libm_sse2_acos = msvcr110.__libm_sse2_acos
__libm_sse2_acosf = msvcr110.__libm_sse2_acosf
__libm_sse2_asin = msvcr110.__libm_sse2_asin
__libm_sse2_asinf = msvcr110.__libm_sse2_asinf
__libm_sse2_atan = msvcr110.__libm_sse2_atan
__libm_sse2_atan2 = msvcr110.__libm_sse2_atan2
__libm_sse2_atanf = msvcr110.__libm_sse2_atanf
__libm_sse2_cos = msvcr110.__libm_sse2_cos
__libm_sse2_cosf = msvcr110.__libm_sse2_cosf
__libm_sse2_exp = msvcr110.__libm_sse2_exp
__libm_sse2_expf = msvcr110.__libm_sse2_expf
__libm_sse2_log = msvcr110.__libm_sse2_log
__libm_sse2_log10 = msvcr110.__libm_sse2_log10
__libm_sse2_log10f = msvcr110.__libm_sse2_log10f
__libm_sse2_logf = msvcr110.__libm_sse2_logf
__libm_sse2_pow = msvcr110.__libm_sse2_pow
__libm_sse2_powf = msvcr110.__libm_sse2_powf
__libm_sse2_sin = msvcr110.__libm_sse2_sin
__libm_sse2_sinf = msvcr110.__libm_sse2_sinf
__libm_sse2_tan = msvcr110.__libm_sse2_tan
__libm_sse2_tanf = msvcr110.__libm_sse2_tanf
__mb_cur_max = msvcr110.__mb_cur_max
__p___argc = msvcr110.__p___argc
__p___argv = msvcr110.__p___argv
__p___initenv = msvcr110.__p___initenv
__p___mb_cur_max = msvcr110.__p___mb_cur_max
__p___wargv = msvcr110.__p___wargv
__p___winitenv = msvcr110.__p___winitenv
__p__acmdln = msvcr110.__p__acmdln
__p__commode = msvcr110.__p__commode
__p__daylight = msvcr110.__p__daylight
__p__dstbias = msvcr110.__p__dstbias
__p__environ = msvcr110.__p__environ
__p__fmode = msvcr110.__p__fmode
__p__iob = msvcr110.__p__iob
__p__mbcasemap = msvcr110.__p__mbcasemap
__p__mbctype = msvcr110.__p__mbctype
__p__pctype = msvcr110.__p__pctype
__p__pgmptr = msvcr110.__p__pgmptr
__p__pwctype = msvcr110.__p__pwctype
__p__timezone = msvcr110.__p__timezone
__p__tzname = msvcr110.__p__tzname
__p__wcmdln = msvcr110.__p__wcmdln
__p__wenviron = msvcr110.__p__wenviron
__p__wpgmptr = msvcr110.__p__wpgmptr
__pctype_func = msvcr110.__pctype_func
__pioinfo = msvcr110.__pioinfo
__pwctype_func = msvcr110.__pwctype_func
__pxcptinfoptrs = msvcr110.__pxcptinfoptrs
__report_gsfailure = msvcr110.__report_gsfailure
__set_app_type = msvcr110.__set_app_type
__setlc_active = msvcr110.__setlc_active
__setusermatherr = msvcr110.__setusermatherr
__strncnt = msvcr110.__strncnt
__swprintf_l = msvcr110.__swprintf_l
__sys_errlist = msvcr110.__sys_errlist
__sys_nerr = msvcr110.__sys_nerr
__threadhandle = msvcr110.__threadhandle
__threadid = msvcr110.__threadid
__timezone = msvcr110.__timezone
__toascii = msvcr110.__toascii
__tzname = msvcr110.__tzname
__unDName = msvcr110.__unDName
__unDNameEx = msvcr110.__unDNameEx
__unDNameHelper = msvcr110.__unDNameHelper
__unguarded_readlc_active = msvcr110.__unguarded_readlc_active
__vswprintf_l = msvcr110.__vswprintf_l
__wargv = msvcr110.__wargv
__wcserror = msvcr110.__wcserror
__wcserror_s = msvcr110.__wcserror_s
__wcsncnt = msvcr110.__wcsncnt
__wgetmainargs = msvcr110.__wgetmainargs
__winitenv = msvcr110.__winitenv
_abnormal_termination = msvcr110._abnormal_termination
_abs64 = msvcr110._abs64
_access = msvcr110._access
_access_s = msvcr110._access_s
_acmdln = msvcr110._acmdln
_aligned_free = msvcr110._aligned_free
_aligned_malloc = msvcr110._aligned_malloc
_aligned_msize = msvcr110._aligned_msize
_aligned_offset_malloc = msvcr110._aligned_offset_malloc
_aligned_offset_realloc = msvcr110._aligned_offset_realloc
_aligned_offset_recalloc = msvcr110._aligned_offset_recalloc
_aligned_realloc = msvcr110._aligned_realloc
_aligned_recalloc = msvcr110._aligned_recalloc
_amsg_exit = msvcr110._amsg_exit
_assert = msvcr110._assert
_atodbl = msvcr110._atodbl
_atodbl_l = msvcr110._atodbl_l
_atof_l = msvcr110._atof_l
_atoflt = msvcr110._atoflt
_atoflt_l = msvcr110._atoflt_l
_atoi64 = msvcr110._atoi64
_atoi64_l = msvcr110._atoi64_l
_atoi_l = msvcr110._atoi_l
_atol_l = msvcr110._atol_l
_atoldbl = msvcr110._atoldbl
_atoldbl_l = msvcr110._atoldbl_l
_atoll_l = msvcr110._atoll_l
_beep = msvcr110._beep
_beginthread = msvcr110._beginthread
_beginthreadex = msvcr110._beginthreadex
_byteswap_uint64 = msvcr110._byteswap_uint64
_byteswap_ulong = msvcr110._byteswap_ulong
_byteswap_ushort = msvcr110._byteswap_ushort
_c_exit = msvcr110._c_exit
_cabs = msvcr110._cabs
_callnewh = msvcr110._callnewh
_calloc_crt = msvcr110._calloc_crt
_cexit = msvcr110._cexit
_cgets = msvcr110._cgets
_cgets_s = msvcr110._cgets_s
_cgetws = msvcr110._cgetws
_cgetws_s = msvcr110._cgetws_s
_chdir = msvcr110._chdir
_chdrive = msvcr110._chdrive
_chgsign = msvcr110._chgsign
_chgsignf = msvcr110._chgsignf
_chkesp = msvcr110._chkesp
_chmod = msvcr110._chmod
_chsize = msvcr110._chsize
_chsize_s = msvcr110._chsize_s
_clearfp = msvcr110._clearfp
_close = msvcr110._close
_commit = msvcr110._commit
_commode = msvcr110._commode
_configthreadlocale = msvcr110._configthreadlocale
_control87 = msvcr110._control87
_controlfp = msvcr110._controlfp
_controlfp_s = msvcr110._controlfp_s
_copysign = msvcr110._copysign
_copysignf = msvcr110._copysignf
_cprintf = msvcr110._cprintf
_cprintf_l = msvcr110._cprintf_l
_cprintf_p = msvcr110._cprintf_p
_cprintf_p_l = msvcr110._cprintf_p_l
_cprintf_s = msvcr110._cprintf_s
_cprintf_s_l = msvcr110._cprintf_s_l
_cputs = msvcr110._cputs
_cputws = msvcr110._cputws
_creat = msvcr110._creat
_create_locale = msvcr110._create_locale
_crt_debugger_hook = msvcr110._crt_debugger_hook
_cscanf = msvcr110._cscanf
_cscanf_l = msvcr110._cscanf_l
_cscanf_s = msvcr110._cscanf_s
_cscanf_s_l = msvcr110._cscanf_s_l
_ctime32 = msvcr110._ctime32
_ctime32_s = msvcr110._ctime32_s
_ctime64 = msvcr110._ctime64
_ctime64_s = msvcr110._ctime64_s
_cwait = msvcr110._cwait
_cwprintf = msvcr110._cwprintf
_cwprintf_l = msvcr110._cwprintf_l
_cwprintf_p = msvcr110._cwprintf_p
_cwprintf_p_l = msvcr110._cwprintf_p_l
_cwprintf_s = msvcr110._cwprintf_s
_cwprintf_s_l = msvcr110._cwprintf_s_l
_cwscanf = msvcr110._cwscanf
_cwscanf_l = msvcr110._cwscanf_l
_cwscanf_s = msvcr110._cwscanf_s
_cwscanf_s_l = msvcr110._cwscanf_s_l
_daylight = msvcr110._daylight
_dclass = msvcr110._dclass
_difftime32 = msvcr110._difftime32
_difftime64 = msvcr110._difftime64
_dosmaperr = msvcr110._dosmaperr
_dpcomp = msvcr110._dpcomp
_dsign = msvcr110._dsign
_dstbias = msvcr110._dstbias
_dtest = msvcr110._dtest
_dup = msvcr110._dup
_dup2 = msvcr110._dup2
_dupenv_s = msvcr110._dupenv_s
_ecvt = msvcr110._ecvt
_ecvt_s = msvcr110._ecvt_s
_endthread = msvcr110._endthread
_endthreadex = msvcr110._endthreadex
_environ = msvcr110._environ
_eof = msvcr110._eof
_errno = msvcr110._errno
_except1 = msvcr110._except1
_except_handler2 = msvcr110._except_handler2
_except_handler3 = msvcr110._except_handler3
_except_handler4_common = msvcr110._except_handler4_common
_execl = msvcr110._execl
_execle = msvcr110._execle
_execlp = msvcr110._execlp
_execlpe = msvcr110._execlpe
_execv = msvcr110._execv
_execve = msvcr110._execve
_execvp = msvcr110._execvp
_execvpe = msvcr110._execvpe
_exit = msvcr110._exit
_expand = msvcr110._expand
_fclose_nolock = msvcr110._fclose_nolock
_fcloseall = msvcr110._fcloseall
_fcvt = msvcr110._fcvt
_fcvt_s = msvcr110._fcvt_s
_fdclass = msvcr110._fdclass
_fdopen = msvcr110._fdopen
_fdpcomp = msvcr110._fdpcomp
_fdsign = msvcr110._fdsign
_fdtest = msvcr110._fdtest
_fflush_nolock = msvcr110._fflush_nolock
_fgetchar = msvcr110._fgetchar
_fgetwc_nolock = msvcr110._fgetwc_nolock
_fgetwchar = msvcr110._fgetwchar
_filbuf = msvcr110._filbuf
_filelength = msvcr110._filelength
_filelengthi64 = msvcr110._filelengthi64
_fileno = msvcr110._fileno
_findclose = msvcr110._findclose
_findfirst = msvcr110._findfirst32
_findfirst32 = msvcr110._findfirst32
_findfirst32i64 = msvcr110._findfirst32i64
_findfirst64 = msvcr110._findfirst64
_findfirst64i32 = msvcr110._findfirst64i32
_findnext = msvcr110._findnext32
_findnext32 = msvcr110._findnext32
_findnext32i64 = msvcr110._findnext32i64
_findnext64 = msvcr110._findnext64
_findnext64i32 = msvcr110._findnext64i32
_finite = msvcr110._finite
_flsbuf = msvcr110._flsbuf
_flushall = msvcr110._flushall
_fmode = msvcr110._fmode
_fpclass = msvcr110._fpclass
_fpieee_flt = msvcr110._fpieee_flt
_fpreset = msvcr110._fpreset
_fprintf_l = msvcr110._fprintf_l
_fprintf_p = msvcr110._fprintf_p
_fprintf_p_l = msvcr110._fprintf_p_l
_fprintf_s_l = msvcr110._fprintf_s_l
_fputchar = msvcr110._fputchar
_fputwc_nolock = msvcr110._fputwc_nolock
_fputwchar = msvcr110._fputwchar
_fread_nolock = msvcr110._fread_nolock
_fread_nolock_s = msvcr110._fread_nolock_s
_free_locale = msvcr110._free_locale
_freea = msvcr110._freea
_freea_s = msvcr110._freea_s
_freefls = msvcr110._freefls
_fscanf_l = msvcr110._fscanf_l
_fscanf_s_l = msvcr110._fscanf_s_l
_fseek_nolock = msvcr110._fseek_nolock
_fseeki64 = msvcr110._fseeki64
_fseeki64_nolock = msvcr110._fseeki64_nolock
_fsopen = msvcr110._fsopen
_fstat32 = msvcr110._fstat32
_fstat32i64 = msvcr110._fstat32i64
_fstat64 = msvcr110._fstat64
_fstat64i32 = msvcr110._fstat64i32
_ftell_nolock = msvcr110._ftell_nolock
_ftelli64 = msvcr110._ftelli64
_ftelli64_nolock = msvcr110._ftelli64_nolock
_ftime32 = msvcr110._ftime32
_ftime32_s = msvcr110._ftime32_s
_ftime64 = msvcr110._ftime64
_ftime64_s = msvcr110._ftime64_s
_ftol = msvcr110._ftol
_fullpath = msvcr110._fullpath
_futime32 = msvcr110._futime32
_futime64 = msvcr110._futime64
_fwprintf_l = msvcr110._fwprintf_l
_fwprintf_p = msvcr110._fwprintf_p
_fwprintf_p_l = msvcr110._fwprintf_p_l
_fwprintf_s_l = msvcr110._fwprintf_s_l
_fwrite_nolock = msvcr110._fwrite_nolock
_fwscanf_l = msvcr110._fwscanf_l
_fwscanf_s_l = msvcr110._fwscanf_s_l
_gcvt = msvcr110._gcvt
_gcvt_s = msvcr110._gcvt_s
_get_current_locale = msvcr110._get_current_locale
_get_daylight = msvcr110._get_daylight
_get_doserrno = msvcr110._get_doserrno
_get_dstbias = msvcr110._get_dstbias
_get_errno = msvcr110._get_errno
_get_fmode = msvcr110._get_fmode
_get_heap_handle = msvcr110._get_heap_handle
_get_invalid_parameter_handler = msvcr110._get_invalid_parameter_handler
_get_osfhandle = msvcr110._get_osfhandle
_get_output_format = msvcr110._get_output_format
_get_pgmptr = msvcr110._get_pgmptr
_get_printf_count_output = msvcr110._get_printf_count_output
_get_purecall_handler = msvcr110._get_purecall_handler
_get_terminate = msvcr110._get_terminate
_get_timezone = msvcr110._get_timezone
_get_tzname = msvcr110._get_tzname
_get_unexpected = msvcr110._get_unexpected
_get_wpgmptr = msvcr110._get_wpgmptr
_getc_nolock = msvcr110._getc_nolock
_getch = msvcr110._getch
_getch_nolock = msvcr110._getch_nolock
_getche = msvcr110._getche
_getche_nolock = msvcr110._getche_nolock
_getcwd = msvcr110._getcwd
_getdcwd = msvcr110._getdcwd
_getdiskfree = msvcr110._getdiskfree
_getdllprocaddr = msvcr110._getdllprocaddr
_getdrive = msvcr110._getdrive
_getdrives = msvcr110._getdrives
_getmaxstdio = msvcr110._getmaxstdio
_getmbcp = msvcr110._getmbcp
_getpid = msvcr110._getpid
_getptd = msvcr110._getptd
_getsystime = msvcr110._getsystime
_getw = msvcr110._getw
_getwch = msvcr110._getwch
_getwch_nolock = msvcr110._getwch_nolock
_getwche = msvcr110._getwche
_getwche_nolock = msvcr110._getwche_nolock
_getws = msvcr110._getws
_getws_s = msvcr110._getws_s
_global_unwind2 = msvcr110._global_unwind2
_gmtime32 = msvcr110._gmtime32
_gmtime32_s = msvcr110._gmtime32_s
_gmtime64 = msvcr110._gmtime64
_gmtime64_s = msvcr110._gmtime64_s
_heapadd = msvcr110._heapadd
_heapchk = msvcr110._heapchk
_heapmin = msvcr110._heapmin
_heapset = msvcr110._heapset
_heapused = msvcr110._heapused
_heapwalk = msvcr110._heapwalk
_hypot = msvcr110._hypot
_hypotf = msvcr110._hypotf
_i64toa = msvcr110._i64toa
_i64toa_s = msvcr110._i64toa_s
_i64tow = msvcr110._i64tow
_i64tow_s = msvcr110._i64tow_s
_initptd = msvcr110._initptd
_initterm = msvcr110._initterm
_initterm_e = msvcr110._initterm_e
_inp = msvcr110._inp
_inpd = msvcr110._inpd
_inpw = msvcr110._inpw
_invalid_parameter = msvcr110._invalid_parameter
_invalid_parameter_noinfo = msvcr110._invalid_parameter_noinfo
_invalid_parameter_noinfo_noreturn = msvcr110._invalid_parameter_noinfo_noreturn
_invoke_watson = msvcr110._invoke_watson
_iob = msvcr110._iob
_isalnum_l = msvcr110._isalnum_l
_isalpha_l = msvcr110._isalpha_l
_isatty = msvcr110._isatty
_isblank_l = msvcr110._isblank_l
_iscntrl_l = msvcr110._iscntrl_l
_isctype = msvcr110._isctype
_isctype_l = msvcr110._isctype_l
_isdigit_l = msvcr110._isdigit_l
_isgraph_l = msvcr110._isgraph_l
_isleadbyte_l = msvcr110._isleadbyte_l
_islower_l = msvcr110._islower_l
_ismbbalnum = msvcr110._ismbbalnum
_ismbbalnum_l = msvcr110._ismbbalnum_l
_ismbbalpha = msvcr110._ismbbalpha
_ismbbalpha_l = msvcr110._ismbbalpha_l
_ismbbblank = msvcr110._ismbbblank
_ismbbblank_l = msvcr110._ismbbblank_l
_ismbbgraph = msvcr110._ismbbgraph
_ismbbgraph_l = msvcr110._ismbbgraph_l
_ismbbkalnum = msvcr110._ismbbkalnum
_ismbbkalnum_l = msvcr110._ismbbkalnum_l
_ismbbkana = msvcr110._ismbbkana
_ismbbkana_l = msvcr110._ismbbkana_l
_ismbbkprint = msvcr110._ismbbkprint
_ismbbkprint_l = msvcr110._ismbbkprint_l
_ismbbkpunct = msvcr110._ismbbkpunct
_ismbbkpunct_l = msvcr110._ismbbkpunct_l
_ismbblead = msvcr110._ismbblead
_ismbblead_l = msvcr110._ismbblead_l
_ismbbprint = msvcr110._ismbbprint
_ismbbprint_l = msvcr110._ismbbprint_l
_ismbbpunct = msvcr110._ismbbpunct
_ismbbpunct_l = msvcr110._ismbbpunct_l
_ismbbtrail = msvcr110._ismbbtrail
_ismbbtrail_l = msvcr110._ismbbtrail_l
_ismbcalnum = msvcr110._ismbcalnum
_ismbcalnum_l = msvcr110._ismbcalnum_l
_ismbcalpha = msvcr110._ismbcalpha
_ismbcalpha_l = msvcr110._ismbcalpha_l
_ismbcblank = msvcr110._ismbcblank
_ismbcblank_l = msvcr110._ismbcblank_l
_ismbcdigit = msvcr110._ismbcdigit
_ismbcdigit_l = msvcr110._ismbcdigit_l
_ismbcgraph = msvcr110._ismbcgraph
_ismbcgraph_l = msvcr110._ismbcgraph_l
_ismbchira = msvcr110._ismbchira
_ismbchira_l = msvcr110._ismbchira_l
_ismbckata = msvcr110._ismbckata
_ismbckata_l = msvcr110._ismbckata_l
_ismbcl0 = msvcr110._ismbcl0
_ismbcl0_l = msvcr110._ismbcl0_l
_ismbcl1 = msvcr110._ismbcl1
_ismbcl1_l = msvcr110._ismbcl1_l
_ismbcl2 = msvcr110._ismbcl2
_ismbcl2_l = msvcr110._ismbcl2_l
_ismbclegal = msvcr110._ismbclegal
_ismbclegal_l = msvcr110._ismbclegal_l
_ismbclower = msvcr110._ismbclower
_ismbclower_l = msvcr110._ismbclower_l
_ismbcprint = msvcr110._ismbcprint
_ismbcprint_l = msvcr110._ismbcprint_l
_ismbcpunct = msvcr110._ismbcpunct
_ismbcpunct_l = msvcr110._ismbcpunct_l
_ismbcspace = msvcr110._ismbcspace
_ismbcspace_l = msvcr110._ismbcspace_l
_ismbcsymbol = msvcr110._ismbcsymbol
_ismbcsymbol_l = msvcr110._ismbcsymbol_l
_ismbcupper = msvcr110._ismbcupper
_ismbcupper_l = msvcr110._ismbcupper_l
_ismbslead = msvcr110._ismbslead
_ismbslead_l = msvcr110._ismbslead_l
_ismbstrail = msvcr110._ismbstrail
_ismbstrail_l = msvcr110._ismbstrail_l
_isnan = msvcr110._isnan
_isprint_l = msvcr110._isprint_l
_ispunct_l = msvcr110._ispunct_l
_isspace_l = msvcr110._isspace_l
_isupper_l = msvcr110._isupper_l
_iswalnum_l = msvcr110._iswalnum_l
_iswalpha_l = msvcr110._iswalpha_l
_iswblank_l = msvcr110._iswblank_l
_iswcntrl_l = msvcr110._iswcntrl_l
_iswcsym_l = msvcr110._iswcsym_l
_iswcsymf_l = msvcr110._iswcsymf_l
_iswctype_l = msvcr110._iswctype_l
_iswdigit_l = msvcr110._iswdigit_l
_iswgraph_l = msvcr110._iswgraph_l
_iswlower_l = msvcr110._iswlower_l
_iswprint_l = msvcr110._iswprint_l
_iswpunct_l = msvcr110._iswpunct_l
_iswspace_l = msvcr110._iswspace_l
_iswupper_l = msvcr110._iswupper_l
_iswxdigit_l = msvcr110._iswxdigit_l
_isxdigit_l = msvcr110._isxdigit_l
_itoa = msvcr110._itoa
_itoa_s = msvcr110._itoa_s
_itow = msvcr110._itow
_itow_s = msvcr110._itow_s
_j0 = msvcr110._j0
_j1 = msvcr110._j1
_jn = msvcr110._jn
_kbhit = msvcr110._kbhit
_ldclass = msvcr110._ldclass
_ldpcomp = msvcr110._ldpcomp
_ldsign = msvcr110._ldsign
_ldtest = msvcr110._ldtest
_lfind = msvcr110._lfind
_lfind_s = msvcr110._lfind_s
_libm_sse2_acos_precise = msvcr110._libm_sse2_acos_precise
_libm_sse2_asin_precise = msvcr110._libm_sse2_asin_precise
_libm_sse2_atan_precise = msvcr110._libm_sse2_atan_precise
_libm_sse2_cos_precise = msvcr110._libm_sse2_cos_precise
_libm_sse2_exp_precise = msvcr110._libm_sse2_exp_precise
_libm_sse2_log10_precise = msvcr110._libm_sse2_log10_precise
_libm_sse2_log_precise = msvcr110._libm_sse2_log_precise
_libm_sse2_pow_precise = msvcr110._libm_sse2_pow_precise
_libm_sse2_sin_precise = msvcr110._libm_sse2_sin_precise
_libm_sse2_sqrt_precise = msvcr110._libm_sse2_sqrt_precise
_libm_sse2_tan_precise = msvcr110._libm_sse2_tan_precise
_loaddll = msvcr110._loaddll
_local_unwind2 = msvcr110._local_unwind2
_local_unwind4 = msvcr110._local_unwind4
_localtime32 = msvcr110._localtime32
_localtime32_s = msvcr110._localtime32_s
_localtime64 = msvcr110._localtime64
_localtime64_s = msvcr110._localtime64_s
_lock = msvcr110._lock
_lock_file = msvcr110._lock_file
_locking = msvcr110._locking
_logb = msvcr110._logb
_longjmpex = msvcr110._longjmpex
_lrotl = msvcr110._lrotl
_lrotr = msvcr110._lrotr
_lsearch = msvcr110._lsearch
_lsearch_s = msvcr110._lsearch_s
_lseek = msvcr110._lseek
_lseeki64 = msvcr110._lseeki64
_ltoa = msvcr110._ltoa
_ltoa_s = msvcr110._ltoa_s
_ltow = msvcr110._ltow
_ltow_s = msvcr110._ltow_s
_makepath = msvcr110._makepath
_makepath_s = msvcr110._makepath_s
_malloc_crt = msvcr110._malloc_crt
_mbbtombc = msvcr110._mbbtombc
_mbbtombc_l = msvcr110._mbbtombc_l
_mbbtype = msvcr110._mbbtype
_mbbtype_l = msvcr110._mbbtype_l
_mbcasemap = msvcr110._mbcasemap
_mbccpy = msvcr110._mbccpy
_mbccpy_l = msvcr110._mbccpy_l
_mbccpy_s = msvcr110._mbccpy_s
_mbccpy_s_l = msvcr110._mbccpy_s_l
_mbcjistojms = msvcr110._mbcjistojms
_mbcjistojms_l = msvcr110._mbcjistojms_l
_mbcjmstojis = msvcr110._mbcjmstojis
_mbcjmstojis_l = msvcr110._mbcjmstojis_l
_mbclen = msvcr110._mbclen
_mbclen_l = msvcr110._mbclen_l
_mbctohira = msvcr110._mbctohira
_mbctohira_l = msvcr110._mbctohira_l
_mbctokata = msvcr110._mbctokata
_mbctokata_l = msvcr110._mbctokata_l
_mbctolower = msvcr110._mbctolower
_mbctolower_l = msvcr110._mbctolower_l
_mbctombb = msvcr110._mbctombb
_mbctombb_l = msvcr110._mbctombb_l
_mbctoupper = msvcr110._mbctoupper
_mbctoupper_l = msvcr110._mbctoupper_l
_mbctype = msvcr110._mbctype
_mblen_l = msvcr110._mblen_l
_mbsbtype = msvcr110._mbsbtype
_mbsbtype_l = msvcr110._mbsbtype_l
_mbscat_s = msvcr110._mbscat_s
_mbscat_s_l = msvcr110._mbscat_s_l
_mbschr = msvcr110._mbschr
_mbschr_l = msvcr110._mbschr_l
_mbscmp = msvcr110._mbscmp
_mbscmp_l = msvcr110._mbscmp_l
_mbscoll = msvcr110._mbscoll
_mbscoll_l = msvcr110._mbscoll_l
_mbscpy_s = msvcr110._mbscpy_s
_mbscpy_s_l = msvcr110._mbscpy_s_l
_mbscspn = msvcr110._mbscspn
_mbscspn_l = msvcr110._mbscspn_l
_mbsdec = msvcr110._mbsdec
_mbsdec_l = msvcr110._mbsdec_l
_mbsicmp = msvcr110._mbsicmp
_mbsicmp_l = msvcr110._mbsicmp_l
_mbsicoll = msvcr110._mbsicoll
_mbsicoll_l = msvcr110._mbsicoll_l
_mbsinc = msvcr110._mbsinc
_mbsinc_l = msvcr110._mbsinc_l
_mbslen = msvcr110._mbslen
_mbslen_l = msvcr110._mbslen_l
_mbslwr = msvcr110._mbslwr
_mbslwr_l = msvcr110._mbslwr_l
_mbslwr_s = msvcr110._mbslwr_s
_mbslwr_s_l = msvcr110._mbslwr_s_l
_mbsnbcat = msvcr110._mbsnbcat
_mbsnbcat_l = msvcr110._mbsnbcat_l
_mbsnbcat_s = msvcr110._mbsnbcat_s
_mbsnbcat_s_l = msvcr110._mbsnbcat_s_l
_mbsnbcmp = msvcr110._mbsnbcmp
_mbsnbcmp_l = msvcr110._mbsnbcmp_l
_mbsnbcnt = msvcr110._mbsnbcnt
_mbsnbcnt_l = msvcr110._mbsnbcnt_l
_mbsnbcoll = msvcr110._mbsnbcoll
_mbsnbcoll_l = msvcr110._mbsnbcoll_l
_mbsnbcpy = msvcr110._mbsnbcpy
_mbsnbcpy_l = msvcr110._mbsnbcpy_l
_mbsnbcpy_s = msvcr110._mbsnbcpy_s
_mbsnbcpy_s_l = msvcr110._mbsnbcpy_s_l
_mbsnbicmp = msvcr110._mbsnbicmp
_mbsnbicmp_l = msvcr110._mbsnbicmp_l
_mbsnbicoll = msvcr110._mbsnbicoll
_mbsnbicoll_l = msvcr110._mbsnbicoll_l
_mbsnbset = msvcr110._mbsnbset
_mbsnbset_l = msvcr110._mbsnbset_l
_mbsnbset_s = msvcr110._mbsnbset_s
_mbsnbset_s_l = msvcr110._mbsnbset_s_l
_mbsncat = msvcr110._mbsncat
_mbsncat_l = msvcr110._mbsncat_l
_mbsncat_s = msvcr110._mbsncat_s
_mbsncat_s_l = msvcr110._mbsncat_s_l
_mbsnccnt = msvcr110._mbsnccnt
_mbsnccnt_l = msvcr110._mbsnccnt_l
_mbsncmp = msvcr110._mbsncmp
_mbsncmp_l = msvcr110._mbsncmp_l
_mbsncoll = msvcr110._mbsncoll
_mbsncoll_l = msvcr110._mbsncoll_l
_mbsncpy = msvcr110._mbsncpy
_mbsncpy_l = msvcr110._mbsncpy_l
_mbsncpy_s = msvcr110._mbsncpy_s
_mbsncpy_s_l = msvcr110._mbsncpy_s_l
_mbsnextc = msvcr110._mbsnextc
_mbsnextc_l = msvcr110._mbsnextc_l
_mbsnicmp = msvcr110._mbsnicmp
_mbsnicmp_l = msvcr110._mbsnicmp_l
_mbsnicoll = msvcr110._mbsnicoll
_mbsnicoll_l = msvcr110._mbsnicoll_l
_mbsninc = msvcr110._mbsninc
_mbsninc_l = msvcr110._mbsninc_l
_mbsnlen = msvcr110._mbsnlen
_mbsnlen_l = msvcr110._mbsnlen_l
_mbsnset = msvcr110._mbsnset
_mbsnset_l = msvcr110._mbsnset_l
_mbsnset_s = msvcr110._mbsnset_s
_mbsnset_s_l = msvcr110._mbsnset_s_l
_mbspbrk = msvcr110._mbspbrk
_mbspbrk_l = msvcr110._mbspbrk_l
_mbsrchr = msvcr110._mbsrchr
_mbsrchr_l = msvcr110._mbsrchr_l
_mbsrev = msvcr110._mbsrev
_mbsrev_l = msvcr110._mbsrev_l
_mbsset = msvcr110._mbsset
_mbsset_l = msvcr110._mbsset_l
_mbsset_s = msvcr110._mbsset_s
_mbsset_s_l = msvcr110._mbsset_s_l
_mbsspn = msvcr110._mbsspn
_mbsspn_l = msvcr110._mbsspn_l
_mbsspnp = msvcr110._mbsspnp
_mbsspnp_l = msvcr110._mbsspnp_l
_mbsstr = msvcr110._mbsstr
_mbsstr_l = msvcr110._mbsstr_l
_mbstok = msvcr110._mbstok
_mbstok_l = msvcr110._mbstok_l
_mbstok_s = msvcr110._mbstok_s
_mbstok_s_l = msvcr110._mbstok_s_l
_mbstowcs_l = msvcr110._mbstowcs_l
_mbstowcs_s_l = msvcr110._mbstowcs_s_l
_mbstrlen = msvcr110._mbstrlen
_mbstrlen_l = msvcr110._mbstrlen_l
_mbstrnlen = msvcr110._mbstrnlen
_mbstrnlen_l = msvcr110._mbstrnlen_l
_mbsupr = msvcr110._mbsupr
_mbsupr_l = msvcr110._mbsupr_l
_mbsupr_s = msvcr110._mbsupr_s
_mbsupr_s_l = msvcr110._mbsupr_s_l
_mbtowc_l = msvcr110._mbtowc_l
_memccpy = msvcr110._memccpy
_memicmp = msvcr110._memicmp
_memicmp_l = msvcr110._memicmp_l
_mkdir = msvcr110._mkdir
_mkgmtime32 = msvcr110._mkgmtime32
_mkgmtime64 = msvcr110._mkgmtime64
_mktemp = msvcr110._mktemp
_mktemp_s = msvcr110._mktemp_s
_mktime32 = msvcr110._mktime32
_mktime64 = msvcr110._mktime64
_msize = msvcr110._msize
_nextafter = msvcr110._nextafter
_onexit = msvcr110._onexit
_open = msvcr110._open
_open_osfhandle = msvcr110._open_osfhandle
_outp = msvcr110._outp
_outpd = msvcr110._outpd
_outpw = msvcr110._outpw
_pclose = msvcr110._pclose
_pctype = msvcr110._pctype
_pgmptr = msvcr110._pgmptr
_pipe = msvcr110._pipe
_popen = msvcr110._popen
_printf_l = msvcr110._printf_l
_printf_p = msvcr110._printf_p
_printf_p_l = msvcr110._printf_p_l
_printf_s_l = msvcr110._printf_s_l
_purecall = msvcr110._purecall
_putch = msvcr110._putch
_putch_nolock = msvcr110._putch_nolock
_putenv = msvcr110._putenv
_putenv_s = msvcr110._putenv_s
_putw = msvcr110._putw
_putwch = msvcr110._putwch
_putwch_nolock = msvcr110._putwch_nolock
_putws = msvcr110._putws
_pwctype = msvcr110._pwctype
_read = msvcr110._read
_realloc_crt = msvcr110._realloc_crt
_recalloc = msvcr110._recalloc
_recalloc_crt = msvcr110._recalloc_crt
_resetstkoflw = msvcr110._resetstkoflw
_rmdir = msvcr110._rmdir
_rmtmp = msvcr110._rmtmp
_rotl = msvcr110._rotl
_rotl64 = msvcr110._rotl64
_rotr = msvcr110._rotr
_rotr64 = msvcr110._rotr64
_scalb = msvcr110._scalb
_scanf_l = msvcr110._scanf_l
_scanf_s_l = msvcr110._scanf_s_l
_scprintf = msvcr110._scprintf
_scprintf_l = msvcr110._scprintf_l
_scprintf_p = msvcr110._scprintf_p
_scprintf_p_l = msvcr110._scprintf_p_l
_scwprintf = msvcr110._scwprintf
_scwprintf_l = msvcr110._scwprintf_l
_scwprintf_p = msvcr110._scwprintf_p
_scwprintf_p_l = msvcr110._scwprintf_p_l
_searchenv = msvcr110._searchenv
_searchenv_s = msvcr110._searchenv_s
_seh_longjmp_unwind4 = msvcr110._seh_longjmp_unwind4
_seh_longjmp_unwind = msvcr110._seh_longjmp_unwind
_set_SSE2_enable = msvcr110._set_SSE2_enable
_set_abort_behavior = msvcr110._set_abort_behavior
_set_controlfp = msvcr110._set_controlfp
_set_doserrno = msvcr110._set_doserrno
_set_errno = msvcr110._set_errno
_set_error_mode = msvcr110._set_error_mode
_set_fmode = msvcr110._set_fmode
_set_invalid_parameter_handler = msvcr110._set_invalid_parameter_handler
_set_malloc_crt_max_wait = msvcr110._set_malloc_crt_max_wait
_set_output_format = msvcr110._set_output_format
_set_printf_count_output = msvcr110._set_printf_count_output
_set_purecall_handler = msvcr110._set_purecall_handler
_seterrormode = msvcr110._seterrormode
_setjmp = msvcr110._setjmp
_setjmp3 = msvcr110._setjmp3
_setmaxstdio = msvcr110._setmaxstdio
_setmbcp = msvcr110._setmbcp
_setmode = msvcr110._setmode
_setsystime = msvcr110._setsystime
_sleep = msvcr110._sleep
_snprintf = msvcr110._snprintf
_snprintf_c = msvcr110._snprintf_c
_snprintf_c_l = msvcr110._snprintf_c_l
_snprintf_l = msvcr110._snprintf_l
_snprintf_s = msvcr110._snprintf_s
_snprintf_s_l = msvcr110._snprintf_s_l
_snscanf = msvcr110._snscanf
_snscanf_l = msvcr110._snscanf_l
_snscanf_s = msvcr110._snscanf_s
_snscanf_s_l = msvcr110._snscanf_s_l
_snwprintf = msvcr110._snwprintf
_snwprintf_l = msvcr110._snwprintf_l
_snwprintf_s = msvcr110._snwprintf_s
_snwprintf_s_l = msvcr110._snwprintf_s_l
_snwscanf = msvcr110._snwscanf
_snwscanf_l = msvcr110._snwscanf_l
_snwscanf_s = msvcr110._snwscanf_s
_snwscanf_s_l = msvcr110._snwscanf_s_l
_sopen = msvcr110._sopen
_sopen_s = msvcr110._sopen_s
_spawnl = msvcr110._spawnl
_spawnle = msvcr110._spawnle
_spawnlp = msvcr110._spawnlp
_spawnlpe = msvcr110._spawnlpe
_spawnv = msvcr110._spawnv
_spawnve = msvcr110._spawnve
_spawnvp = msvcr110._spawnvp
_spawnvpe = msvcr110._spawnvpe
_splitpath = msvcr110._splitpath
_splitpath_s = msvcr110._splitpath_s
_sprintf_l = msvcr110._sprintf_l
_sprintf_p = msvcr110._sprintf_p
_sprintf_p_l = msvcr110._sprintf_p_l
_sprintf_s_l = msvcr110._sprintf_s_l
_sscanf_l = msvcr110._sscanf_l
_sscanf_s_l = msvcr110._sscanf_s_l
_stat = msvcrt._stat
_stat32 = msvcr110._stat32
_stat32i64 = msvcr110._stat32i64
_stati64 = msvcrt._stati64
_stat64 = msvcr110._stat64
_stat64i32 = msvcr110._stat64i32
_statusfp = msvcr110._statusfp
_statusfp2 = msvcr110._statusfp2
_strcoll_l = msvcr110._strcoll_l
_strdate = msvcr110._strdate
_strdate_s = msvcr110._strdate_s
_strdup = msvcr110._strdup
_strerror = msvcr110._strerror
_strerror_s = msvcr110._strerror_s
_strftime_l = msvcr110._strftime_l
_stricmp = msvcr110._stricmp
_stricmp_l = msvcr110._stricmp_l
_stricoll = msvcr110._stricoll
_stricoll_l = msvcr110._stricoll_l
_strlwr = msvcr110._strlwr
_strlwr_l = msvcr110._strlwr_l
_strlwr_s = msvcr110._strlwr_s
_strlwr_s_l = msvcr110._strlwr_s_l
_strncoll = msvcr110._strncoll
_strncoll_l = msvcr110._strncoll_l
_strnicmp = msvcr110._strnicmp
_strnicmp_l = msvcr110._strnicmp_l
_strnicoll = msvcr110._strnicoll
_strnicoll_l = msvcr110._strnicoll_l
_strnset = msvcr110._strnset
_strnset_s = msvcr110._strnset_s
_strrev = msvcr110._strrev
_strset = msvcr110._strset
_strset_s = msvcr110._strset_s
_strtime = msvcr110._strtime
_strtime_s = msvcr110._strtime_s
_strtod_l = msvcr110._strtod_l
_strtof_l = msvcr110._strtof_l
_strtoi64 = msvcr110._strtoi64
_strtoi64_l = msvcr110._strtoi64_l
_strtoimax_l = msvcr110._strtoimax_l
_strtol_l = msvcr110._strtol_l
_strtold_l = msvcr110._strtold_l
_strtoll_l = msvcr110._strtoll_l
_strtoui64 = msvcr110._strtoui64
_strtoui64_l = msvcr110._strtoui64_l
_strtoul_l = msvcr110._strtoul_l
_strtoull_l = msvcr110._strtoull_l
_strtoumax_l = msvcr110._strtoumax_l
_strupr = msvcr110._strupr
_strupr_l = msvcr110._strupr_l
_strupr_s = msvcr110._strupr_s
_strupr_s_l = msvcr110._strupr_s_l
_strxfrm_l = msvcr110._strxfrm_l
_swab = msvcr110._swab
_swprintf = msvcr110._swprintf
_swprintf_c = msvcr110._swprintf_c
_swprintf_c_l = msvcr110._swprintf_c_l
_swprintf_p = msvcr110._swprintf_p
_swprintf_p_l = msvcr110._swprintf_p_l
_swprintf_s_l = msvcr110._swprintf_s_l
_swscanf_l = msvcr110._swscanf_l
_swscanf_s_l = msvcr110._swscanf_s_l
_sys_errlist = msvcr110._sys_errlist
_sys_nerr = msvcr110._sys_nerr
_tell = msvcr110._tell
_telli64 = msvcr110._telli64
_tempnam = msvcr110._tempnam
_time32 = msvcr110._time32
_time64 = msvcr110._time64
_timezone = msvcr110._timezone
_tolower = msvcr110._tolower
_tolower_l = msvcr110._tolower_l
_toupper = msvcr110._toupper
_toupper_l = msvcr110._toupper_l
_towlower_l = msvcr110._towlower_l
_towupper_l = msvcr110._towupper_l
_tzname = msvcr110._tzname
_tzset = msvcr110._tzset
_ui64toa = msvcr110._ui64toa
_ui64toa_s = msvcr110._ui64toa_s
_ui64tow = msvcr110._ui64tow
_ui64tow_s = msvcr110._ui64tow_s
_ultoa = msvcr110._ultoa
_ultoa_s = msvcr110._ultoa_s
_ultow = msvcr110._ultow
_ultow_s = msvcr110._ultow_s
_umask = msvcr110._umask
_umask_s = msvcr110._umask_s
_ungetc_nolock = msvcr110._ungetc_nolock
_ungetch = msvcr110._ungetch
_ungetch_nolock = msvcr110._ungetch_nolock
_ungetwc_nolock = msvcr110._ungetwc_nolock
_ungetwch = msvcr110._ungetwch
_ungetwch_nolock = msvcr110._ungetwch_nolock
_unlink = msvcr110._unlink
_unloaddll = msvcr110._unloaddll
_unlock = msvcr110._unlock
_unlock_file = msvcr110._unlock_file
_utime32 = msvcr110._utime32
_utime64 = msvcr110._utime64
_vacopy = msvcr110._vacopy
_vcprintf = msvcr110._vcprintf
_vcprintf_l = msvcr110._vcprintf_l
_vcprintf_p = msvcr110._vcprintf_p
_vcprintf_p_l = msvcr110._vcprintf_p_l
_vcprintf_s = msvcr110._vcprintf_s
_vcprintf_s_l = msvcr110._vcprintf_s_l
_vcwprintf = msvcr110._vcwprintf
_vcwprintf_l = msvcr110._vcwprintf_l
_vcwprintf_p = msvcr110._vcwprintf_p
_vcwprintf_p_l = msvcr110._vcwprintf_p_l
_vcwprintf_s = msvcr110._vcwprintf_s
_vcwprintf_s_l = msvcr110._vcwprintf_s_l
_vfprintf_l = msvcr110._vfprintf_l
_vfprintf_p = msvcr110._vfprintf_p
_vfprintf_p_l = msvcr110._vfprintf_p_l
_vfprintf_s_l = msvcr110._vfprintf_s_l
_vfwprintf_l = msvcr110._vfwprintf_l
_vfwprintf_p = msvcr110._vfwprintf_p
_vfwprintf_p_l = msvcr110._vfwprintf_p_l
_vfwprintf_s_l = msvcr110._vfwprintf_s_l
_vprintf_l = msvcr110._vprintf_l
_vprintf_p = msvcr110._vprintf_p
_vprintf_p_l = msvcr110._vprintf_p_l
_vprintf_s_l = msvcr110._vprintf_s_l
_vscprintf = msvcr110._vscprintf
_vscprintf_l = msvcr110._vscprintf_l
_vscprintf_p = msvcr110._vscprintf_p
_vscprintf_p_l = msvcr110._vscprintf_p_l
_vscwprintf = msvcr110._vscwprintf
_vscwprintf_l = msvcr110._vscwprintf_l
_vscwprintf_p = msvcr110._vscwprintf_p
_vscwprintf_p_l = msvcr110._vscwprintf_p_l
_vsnprintf = msvcr110._vsnprintf
_vsnprintf_c = msvcr110._vsnprintf_c
_vsnprintf_c_l = msvcr110._vsnprintf_c_l
_vsnprintf_l = msvcr110._vsnprintf_l
_vsnprintf_s = msvcr110._vsnprintf_s
_vsnprintf_s_l = msvcr110._vsnprintf_s_l
_vsnwprintf = msvcr110._vsnwprintf
_vsnwprintf_l = msvcr110._vsnwprintf_l
_vsnwprintf_s = msvcr110._vsnwprintf_s
_vsnwprintf_s_l = msvcr110._vsnwprintf_s_l
_vsprintf_l = msvcr110._vsprintf_l
_vsprintf_p = msvcr110._vsprintf_p
_vsprintf_p_l = msvcr110._vsprintf_p_l
_vsprintf_s_l = msvcr110._vsprintf_s_l
_vswprintf = msvcr110._vswprintf
_vswprintf_c = msvcr110._vswprintf_c
_vswprintf_c_l = msvcr110._vswprintf_c_l
_vswprintf_l = msvcr110._vswprintf_l
_vswprintf_p = msvcr110._vswprintf_p
_vswprintf_p_l = msvcr110._vswprintf_p_l
_vswprintf_s_l = msvcr110._vswprintf_s_l
_vwprintf_l = msvcr110._vwprintf_l
_vwprintf_p = msvcr110._vwprintf_p
_vwprintf_p_l = msvcr110._vwprintf_p_l
_vwprintf_s_l = msvcr110._vwprintf_s_l
_waccess = msvcr110._waccess
_waccess_s = msvcr110._waccess_s
_wasctime = msvcr110._wasctime
_wasctime_s = msvcr110._wasctime_s
_wassert = msvcr110._wassert
_wchdir = msvcr110._wchdir
_wchmod = msvcr110._wchmod
_wcmdln = msvcr110._wcmdln
_wcreat = msvcr110._wcreat
_wcreate_locale = msvcr110._wcreate_locale
_wcscoll_l = msvcr110._wcscoll_l
_wcsdup = msvcr110._wcsdup
_wcserror = msvcr110._wcserror
_wcserror_s = msvcr110._wcserror_s
_wcsftime_l = msvcr110._wcsftime_l
_wcsicmp = msvcr110._wcsicmp
_wcsicmp_l = msvcr110._wcsicmp_l
_wcsicoll = msvcr110._wcsicoll
_wcsicoll_l = msvcr110._wcsicoll_l
_wcslwr = msvcr110._wcslwr
_wcslwr_l = msvcr110._wcslwr_l
_wcslwr_s = msvcr110._wcslwr_s
_wcslwr_s_l = msvcr110._wcslwr_s_l
_wcsncoll = msvcr110._wcsncoll
_wcsncoll_l = msvcr110._wcsncoll_l
_wcsnicmp = msvcr110._wcsnicmp
_wcsnicmp_l = msvcr110._wcsnicmp_l
_wcsnicoll = msvcr110._wcsnicoll
_wcsnicoll_l = msvcr110._wcsnicoll_l
_wcsnset = msvcr110._wcsnset
_wcsnset_s = msvcr110._wcsnset_s
_wcsrev = msvcr110._wcsrev
_wcsset = msvcr110._wcsset
_wcsset_s = msvcr110._wcsset_s
_wcstod_l = msvcr110._wcstod_l
_wcstof_l = msvcr110._wcstof_l
_wcstoi64 = msvcr110._wcstoi64
_wcstoi64_l = msvcr110._wcstoi64_l
_wcstoimax_l = msvcr110._wcstoimax_l
_wcstol_l = msvcr110._wcstol_l
_wcstold_l = msvcr110._wcstold_l
_wcstoll_l = msvcr110._wcstoll_l
_wcstombs_l = msvcr110._wcstombs_l
_wcstombs_s_l = msvcr110._wcstombs_s_l
_wcstoui64 = msvcr110._wcstoui64
_wcstoui64_l = msvcr110._wcstoui64_l
_wcstoul_l = msvcr110._wcstoul_l
_wcstoull_l = msvcr110._wcstoull_l
_wcstoumax_l = msvcr110._wcstoumax_l
_wcsupr = msvcr110._wcsupr
_wcsupr_l = msvcr110._wcsupr_l
_wcsupr_s = msvcr110._wcsupr_s
_wcsupr_s_l = msvcr110._wcsupr_s_l
_wcsxfrm_l = msvcr110._wcsxfrm_l
_wctime32 = msvcr110._wctime32
_wctime32_s = msvcr110._wctime32_s
_wctime64 = msvcr110._wctime64
_wctime64_s = msvcr110._wctime64_s
_wctomb_l = msvcr110._wctomb_l
_wctomb_s_l = msvcr110._wctomb_s_l
_wctype = msvcr110._wctype
_wdupenv_s = msvcr110._wdupenv_s
_wenviron = msvcr110._wenviron
_wexecl = msvcr110._wexecl
_wexecle = msvcr110._wexecle
_wexeclp = msvcr110._wexeclp
_wexeclpe = msvcr110._wexeclpe
_wexecv = msvcr110._wexecv
_wexecve = msvcr110._wexecve
_wexecvp = msvcr110._wexecvp
_wexecvpe = msvcr110._wexecvpe
_wfdopen = msvcr110._wfdopen
_wfindfirst = msvcr110._wfindfirst32
_wfindfirst32 = msvcr110._wfindfirst32
_wfindfirst32i64 = msvcr110._wfindfirst32i64
_wfindfirst64 = msvcr110._wfindfirst64
_wfindfirst64i32 = msvcr110._wfindfirst64i32
_wfindnext = msvcr110._wfindnext32
_wfindnext32 = msvcr110._wfindnext32
_wfindnext32i64 = msvcr110._wfindnext32i64
_wfindnext64 = msvcr110._wfindnext64
_wfindnext64i32 = msvcr110._wfindnext64i32
_wfopen = msvcr110._wfopen
_wfopen_s = msvcr110._wfopen_s
_wfreopen = msvcr110._wfreopen
_wfreopen_s = msvcr110._wfreopen_s
_wfsopen = msvcr110._wfsopen
_wfullpath = msvcr110._wfullpath
_wgetcwd = msvcr110._wgetcwd
_wgetdcwd = msvcr110._wgetdcwd
_wgetenv = msvcr110._wgetenv
_wgetenv_s = msvcr110._wgetenv_s
_wmakepath = msvcr110._wmakepath
_wmakepath_s = msvcr110._wmakepath_s
_wmkdir = msvcr110._wmkdir
_wmktemp = msvcr110._wmktemp
_wmktemp_s = msvcr110._wmktemp_s
_wopen = msvcr110._wopen
_wperror = msvcr110._wperror
_wpgmptr = msvcr110._wpgmptr
_wpopen = msvcr110._wpopen
_wprintf_l = msvcr110._wprintf_l
_wprintf_p = msvcr110._wprintf_p
_wprintf_p_l = msvcr110._wprintf_p_l
_wprintf_s_l = msvcr110._wprintf_s_l
_wputenv = msvcr110._wputenv
_wputenv_s = msvcr110._wputenv_s
_wremove = msvcr110._wremove
_wrename = msvcr110._wrename
_write = msvcr110._write
_wrmdir = msvcr110._wrmdir
_wscanf_l = msvcr110._wscanf_l
_wscanf_s_l = msvcr110._wscanf_s_l
_wsearchenv = msvcr110._wsearchenv
_wsearchenv_s = msvcr110._wsearchenv_s
_wsetlocale = msvcr110._wsetlocale
_wsopen = msvcr110._wsopen
_wsopen_s = msvcr110._wsopen_s
_wspawnl = msvcr110._wspawnl
_wspawnle = msvcr110._wspawnle
_wspawnlp = msvcr110._wspawnlp
_wspawnlpe = msvcr110._wspawnlpe
_wspawnv = msvcr110._wspawnv
_wspawnve = msvcr110._wspawnve
_wspawnvp = msvcr110._wspawnvp
_wspawnvpe = msvcr110._wspawnvpe
_wsplitpath = msvcr110._wsplitpath
_wsplitpath_s = msvcr110._wsplitpath_s
_wstat32 = msvcr110._wstat32
_wstat32i64 = msvcr110._wstat32i64
_wstat64 = msvcr110._wstat64
_wstat64i32 = msvcr110._wstat64i32
_wstrdate = msvcr110._wstrdate
_wstrdate_s = msvcr110._wstrdate_s
_wstrtime = msvcr110._wstrtime
_wstrtime_s = msvcr110._wstrtime_s
_wsystem = msvcr110._wsystem
_wtempnam = msvcr110._wtempnam
_wtmpnam = msvcr110._wtmpnam
_wtmpnam_s = msvcr110._wtmpnam_s
_wtof = msvcr110._wtof
_wtof_l = msvcr110._wtof_l
_wtoi = msvcr110._wtoi
_wtoi64 = msvcr110._wtoi64
_wtoi64_l = msvcr110._wtoi64_l
_wtoi_l = msvcr110._wtoi_l
_wtol = msvcr110._wtol
_wtol_l = msvcr110._wtol_l
_wtoll = msvcr110._wtoll
_wtoll_l = msvcr110._wtoll_l
_wunlink = msvcr110._wunlink
_wutime32 = msvcr110._wutime32
_wutime64 = msvcr110._wutime64
_y0 = msvcr110._y0
_y1 = msvcr110._y1
_yn = msvcr110._yn
abort = msvcr110.abort
abs = msvcr110.abs
acos = msvcr110.acos
acosh = msvcr110.acosh
acoshf = msvcr110.acoshf
acoshl = msvcr110.acoshl
asctime = msvcr110.asctime
asctime_s = msvcr110.asctime_s
asin = msvcr110.asin
asinh = msvcr110.asinh
asinhf = msvcr110.asinhf
asinhl = msvcr110.asinhl
atan = msvcr110.atan
atan2 = msvcr110.atan2
atanh = msvcr110.atanh
atanhf = msvcr110.atanhf
atanhl = msvcr110.atanhl
atexit = msvcr110.atexit
atof = msvcr110.atof
atoi = msvcr110.atoi
atol = msvcr110.atol
atoll = msvcr110.atoll
bsearch = msvcr110.bsearch
bsearch_s = msvcr110.bsearch_s
btowc = msvcr110.btowc
cabs = msvcr110.cabs
cabsf = msvcr110.cabsf
cabsl = msvcr110.cabsl
cacos = msvcr110.cacos
cacosf = msvcr110.cacosf
cacosh = msvcr110.cacosh
cacoshf = msvcr110.cacoshf
cacoshl = msvcr110.cacoshl
cacosl = msvcr110.cacosl
calloc = msvcr110.calloc
carg = msvcr110.carg
cargf = msvcr110.cargf
cargl = msvcr110.cargl
casin = msvcr110.casin
casinf = msvcr110.casinf
casinh = msvcr110.casinh
casinhf = msvcr110.casinhf
casinhl = msvcr110.casinhl
casinl = msvcr110.casinl
catan = msvcr110.catan
catanf = msvcr110.catanf
catanh = msvcr110.catanh
catanhf = msvcr110.catanhf
catanhl = msvcr110.catanhl
catanl = msvcr110.catanl
cbrt = msvcr110.cbrt
cbrtf = msvcr110.cbrtf
cbrtl = msvcr110.cbrtl
ccos = msvcr110.ccos
ccosf = msvcr110.ccosf
ccosh = msvcr110.ccosh
ccoshf = msvcr110.ccoshf
ccoshl = msvcr110.ccoshl
ccosl = msvcr110.ccosl
ceil = msvcr110.ceil
cexp = msvcr110.cexp
cexpf = msvcr110.cexpf
cexpl = msvcr110.cexpl
cimag = msvcr110.cimag
cimagf = msvcr110.cimagf
cimagl = msvcr110.cimagl
clearerr = msvcr110.clearerr
clearerr_s = msvcr110.clearerr_s
clock = msvcr110.clock
clog = msvcr110.clog
clog10 = msvcr110.clog10
clog10f = msvcr110.clog10f
clog10l = msvcr110.clog10l
clogf = msvcr110.clogf
clogl = msvcr110.clogl
conj = msvcr110.conj
conjf = msvcr110.conjf
conjl = msvcr110.conjl
copysign = msvcr110.copysign
copysignf = msvcr110.copysignf
copysignl = msvcr110.copysignl
cos = msvcr110.cos
cosh = msvcr110.cosh
cpow = msvcr110.cpow
cpowf = msvcr110.cpowf
cpowl = msvcr110.cpowl
cproj = msvcr110.cproj
cprojf = msvcr110.cprojf
cprojl = msvcr110.cprojl
creal = msvcr110.creal
crealf = msvcr110.crealf
creall = msvcr110.creall
csin = msvcr110.csin
csinf = msvcr110.csinf
csinh = msvcr110.csinh
csinhf = msvcr110.csinhf
csinhl = msvcr110.csinhl
csinl = msvcr110.csinl
csqrt = msvcr110.csqrt
csqrtf = msvcr110.csqrtf
csqrtl = msvcr110.csqrtl
ctan = msvcr110.ctan
ctanf = msvcr110.ctanf
ctanh = msvcr110.ctanh
ctanhf = msvcr110.ctanhf
ctanhl = msvcr110.ctanhl
ctanl = msvcr110.ctanl
div = msvcr110.div
erf = msvcr110.erf
erfc = msvcr110.erfc
erfcf = msvcr110.erfcf
erfcl = msvcr110.erfcl
erff = msvcr110.erff
erfl = msvcr110.erfl
exit = msvcr110.exit
exp = msvcr110.exp
exp2 = msvcr110.exp2
exp2f = msvcr110.exp2f
exp2l = msvcr110.exp2l
expm1 = msvcr110.expm1
expm1f = msvcr110.expm1f
expm1l = msvcr110.expm1l
fabs = msvcr110.fabs
fclose = msvcr110.fclose
fdim = msvcr110.fdim
fdimf = msvcr110.fdimf
fdiml = msvcr110.fdiml
feclearexcept = msvcr110.feclearexcept
fegetenv = msvcr110.fegetenv
fegetexceptflag = msvcr110.fegetexceptflag
fegetround = msvcr110.fegetround
feholdexcept = msvcr110.feholdexcept
feof = msvcr110.feof
feraiseexcept = msvcr110.feraiseexcept
ferror = msvcr110.ferror
fesetenv = msvcr110.fesetenv
fesetexceptflag = msvcr110.fesetexceptflag
fesetround = msvcr110.fesetround
fetestexcept = msvcr110.fetestexcept
feupdateenv = msvcr110.feupdateenv
fflush = msvcr110.fflush
fgetc = msvcr110.fgetc
fgetpos = msvcr110.fgetpos
fgets = msvcr110.fgets
fgetwc = msvcr110.fgetwc
fgetws = msvcr110.fgetws
floor = msvcr110.floor
fma = msvcr110.fma
fmaf = msvcr110.fmaf
fmal = msvcr110.fmal
fmax = msvcr110.fmax
fmaxf = msvcr110.fmaxf
fmaxl = msvcr110.fmaxl
fmin = msvcr110.fmin
fminf = msvcr110.fminf
fminl = msvcr110.fminl
fmod = msvcr110.fmod
fopen = msvcr110.fopen
fopen_s = msvcr110.fopen_s
fprintf = msvcr110.fprintf
fprintf_s = msvcr110.fprintf_s
fputc = msvcr110.fputc
fputs = msvcr110.fputs
fputwc = msvcr110.fputwc
fputws = msvcr110.fputws
fread = msvcr110.fread
fread_s = msvcr110.fread_s
free = msvcr110.free
freopen = msvcr110.freopen
freopen_s = msvcr110.freopen_s
frexp = msvcr110.frexp
fscanf = msvcr110.fscanf
fscanf_s = msvcr110.fscanf_s
fseek = msvcr110.fseek
fsetpos = msvcr110.fsetpos
ftell = msvcr110.ftell
fwprintf = msvcr110.fwprintf
fwprintf_s = msvcr110.fwprintf_s
fwrite = msvcr110.fwrite
fwscanf = msvcr110.fwscanf
fwscanf_s = msvcr110.fwscanf_s
getc = msvcr110.getc
getchar = msvcr110.getchar
getenv = msvcr110.getenv
getenv_s = msvcr110.getenv_s
gets = msvcr110.gets
gets_s = msvcr110.gets_s
getwc = msvcr110.getwc
getwchar = msvcr110.getwchar
ilogb = msvcr110.ilogb
ilogbf = msvcr110.ilogbf
ilogbl = msvcr110.ilogbl
imaxabs = msvcr110.imaxabs
imaxdiv = msvcr110.imaxdiv
is_wctype = msvcr110.is_wctype
isalnum = msvcr110.isalnum
isalpha = msvcr110.isalpha
isblank = msvcr110.isblank
iscntrl = msvcr110.iscntrl
isdigit = msvcr110.isdigit
isgraph = msvcr110.isgraph
isleadbyte = msvcr110.isleadbyte
islower = msvcr110.islower
isprint = msvcr110.isprint
ispunct = msvcr110.ispunct
isspace = msvcr110.isspace
isupper = msvcr110.isupper
iswalnum = msvcr110.iswalnum
iswalpha = msvcr110.iswalpha
iswascii = msvcr110.iswascii
iswblank = msvcr110.iswblank
iswcntrl = msvcr110.iswcntrl
iswctype = msvcr110.iswctype
iswdigit = msvcr110.iswdigit
iswgraph = msvcr110.iswgraph
iswlower = msvcr110.iswlower
iswprint = msvcr110.iswprint
iswpunct = msvcr110.iswpunct
iswspace = msvcr110.iswspace
iswupper = msvcr110.iswupper
iswxdigit = msvcr110.iswxdigit
isxdigit = msvcr110.isxdigit
labs = msvcr110.labs
ldexp = msvcr110.ldexp
ldiv = msvcr110.ldiv
lgamma = msvcr110.lgamma
lgammaf = msvcr110.lgammaf
lgammal = msvcr110.lgammal
llabs = msvcr110.llabs
lldiv = msvcr110.lldiv
llrint = msvcr110.llrint
llrintf = msvcr110.llrintf
llrintl = msvcr110.llrintl
llround = msvcr110.llround
llroundf = msvcr110.llroundf
llroundl = msvcr110.llroundl
localeconv = msvcr110.localeconv
log = msvcr110.log
log10 = msvcr110.log10
log1p = msvcr110.log1p
log1pf = msvcr110.log1pf
log1pl = msvcr110.log1pl
log2 = msvcr110.log2
log2f = msvcr110.log2f
log2l = msvcr110.log2l
logb = msvcr110.logb
logbf = msvcr110.logbf
logbl = msvcr110.logbl
longjmp = msvcr110.longjmp
lrint = msvcr110.lrint
lrintf = msvcr110.lrintf
lrintl = msvcr110.lrintl
lround = msvcr110.lround
lroundf = msvcr110.lroundf
lroundl = msvcr110.lroundl
malloc = msvcr110.malloc
mblen = msvcr110.mblen
mbrlen = msvcr110.mbrlen
mbrtowc = msvcr110.mbrtowc
mbsrtowcs = msvcr110.mbsrtowcs
mbsrtowcs_s = msvcr110.mbsrtowcs_s
mbstowcs = msvcr110.mbstowcs
mbstowcs_s = msvcr110.mbstowcs_s
mbtowc = msvcr110.mbtowc
memchr = msvcr110.memchr
memcmp = msvcr110.memcmp
memcpy = msvcr110.memcpy
memcpy_s = msvcr110.memcpy_s
memmove = msvcr110.memmove
memmove_s = msvcr110.memmove_s
memset = msvcr110.memset
modf = msvcr110.modf
nan = msvcr110.nan
nanf = msvcr110.nanf
nanl = msvcr110.nanl
nearbyint = msvcr110.nearbyint
nearbyintf = msvcr110.nearbyintf
nearbyintl = msvcr110.nearbyintl
nextafter = msvcr110.nextafter
nextafterf = msvcr110.nextafterf
nextafterl = msvcr110.nextafterl
nexttoward = msvcr110.nexttoward
nexttowardf = msvcr110.nexttowardf
nexttowardl = msvcr110.nexttowardl
norm = msvcr110.norm
normf = msvcr110.normf
norml = msvcr110.norml
perror = msvcr110.perror
pow = msvcr110.pow
printf = msvcr110.printf
printf_s = msvcr110.printf_s
putc = msvcr110.putc
putchar = msvcr110.putchar
puts = msvcr110.puts
putwc = msvcr110.putwc
putwchar = msvcr110.putwchar
qsort = msvcr110.qsort
qsort_s = msvcr110.qsort_s
raise = msvcr110.raise
rand = msvcr110.rand
rand_s = msvcr110.rand_s
realloc = msvcr110.realloc
remainder = msvcr110.remainder
remainderf = msvcr110.remainderf
remainderl = msvcr110.remainderl
remove = msvcr110.remove
remquo = msvcr110.remquo
remquof = msvcr110.remquof
remquol = msvcr110.remquol
rename = msvcr110.rename
rewind = msvcr110.rewind
rint = msvcr110.rint
rintf = msvcr110.rintf
rintl = msvcr110.rintl
round = msvcr110.round
roundf = msvcr110.roundf
roundl = msvcr110.roundl
scalbln = msvcr110.scalbln
scalblnf = msvcr110.scalblnf
scalblnl = msvcr110.scalblnl
scalbn = msvcr110.scalbn
scalbnf = msvcr110.scalbnf
scalbnl = msvcr110.scalbnl
scanf = msvcr110.scanf
scanf_s = msvcr110.scanf_s
setbuf = msvcr110.setbuf
setlocale = msvcr110.setlocale
setvbuf = msvcr110.setvbuf
signal = msvcr110.signal
sin = msvcr110.sin
sinh = msvcr110.sinh
sprintf = msvcr110.sprintf
sprintf_s = msvcr110.sprintf_s
sqrt = msvcr110.sqrt
srand = msvcr110.srand
sscanf = msvcr110.sscanf
sscanf_s = msvcr110.sscanf_s
strcat = msvcr110.strcat
strcat_s = msvcr110.strcat_s
strchr = msvcr110.strchr
strcmp = msvcr110.strcmp
strcoll = msvcr110.strcoll
strcpy = msvcr110.strcpy
strcpy_s = msvcr110.strcpy_s
strcspn = msvcr110.strcspn
strerror = msvcr110.strerror
strerror_s = msvcr110.strerror_s
strftime = msvcr110.strftime
strlen = msvcr110.strlen
strncat = msvcr110.strncat
strncat_s = msvcr110.strncat_s
strncmp = msvcr110.strncmp
strncpy = msvcr110.strncpy
strncpy_s = msvcr110.strncpy_s
strnlen = msvcr110.strnlen
strpbrk = msvcr110.strpbrk
strrchr = msvcr110.strrchr
strspn = msvcr110.strspn
strstr = msvcr110.strstr
strtod = msvcr110.strtod
strtof = msvcr110.strtof
strtoimax = msvcr110.strtoimax
strtok = msvcr110.strtok
strtok_s = msvcr110.strtok_s
strtol = msvcr110.strtol
strtold = msvcr110.strtold
strtoll = msvcr110.strtoll
strtoul = msvcr110.strtoul
strtoull = msvcr110.strtoull
strtoumax = msvcr110.strtoumax
strxfrm = msvcr110.strxfrm
swprintf_s = msvcr110.swprintf_s
swscanf = msvcr110.swscanf
swscanf_s = msvcr110.swscanf_s
system = msvcr110.system
tan = msvcr110.tan
tanh = msvcr110.tanh
tgamma = msvcr110.tgamma
tgammaf = msvcr110.tgammaf
tgammal = msvcr110.tgammal
tmpfile = msvcr110.tmpfile
tmpfile_s = msvcr110.tmpfile_s
tmpnam = msvcr110.tmpnam
tmpnam_s = msvcr110.tmpnam_s
tolower = msvcr110.tolower
toupper = msvcr110.toupper
towctrans = msvcr110.towctrans
towlower = msvcr110.towlower
towupper = msvcr110.towupper
trunc = msvcr110.trunc
truncf = msvcr110.truncf
truncl = msvcr110.truncl
ungetc = msvcr110.ungetc
ungetwc = msvcr110.ungetwc
vfprintf = msvcr110.vfprintf
vfprintf_s = msvcr110.vfprintf_s
vfscanf = msvcr110.vfscanf
vfscanf_s = msvcr110.vfscanf_s
vfwprintf = msvcr110.vfwprintf
vfwprintf_s = msvcr110.vfwprintf_s
vfwscanf = msvcr110.vfwscanf
vfwscanf_s = msvcr110.vfwscanf_s
vprintf = msvcr110.vprintf
vprintf_s = msvcr110.vprintf_s
vscanf = msvcr110.vscanf
vscanf_s = msvcr110.vscanf_s
vsprintf = msvcr110.vsprintf
vsprintf_s = msvcr110.vsprintf_s
vsscanf = msvcr110.vsscanf
vsscanf_s = msvcr110.vsscanf_s
vswprintf_s = msvcr110.vswprintf_s
vswscanf = msvcr110.vswscanf
vswscanf_s = msvcr110.vswscanf_s
vwprintf = msvcr110.vwprintf
vwprintf_s = msvcr110.vwprintf_s
vwscanf = msvcr110.vwscanf
vwscanf_s = msvcr110.vwscanf_s
wcrtomb = msvcr110.wcrtomb
wcrtomb_s = msvcr110.wcrtomb_s
wcscat = msvcr110.wcscat
wcscat_s = msvcr110.wcscat_s
wcschr = msvcr110.wcschr
wcscmp = msvcr110.wcscmp
wcscoll = msvcr110.wcscoll
wcscpy = msvcr110.wcscpy
wcscpy_s = msvcr110.wcscpy_s
wcscspn = msvcr110.wcscspn
wcsftime = msvcr110.wcsftime
wcslen = msvcr110.wcslen
wcsncat = msvcr110.wcsncat
wcsncat_s = msvcr110.wcsncat_s
wcsncmp = msvcr110.wcsncmp
wcsncpy = msvcr110.wcsncpy
wcsncpy_s = msvcr110.wcsncpy_s
wcsnlen = msvcr110.wcsnlen
wcspbrk = msvcr110.wcspbrk
wcsrchr = msvcr110.wcsrchr
wcsrtombs = msvcr110.wcsrtombs
wcsrtombs_s = msvcr110.wcsrtombs_s
wcsspn = msvcr110.wcsspn
wcsstr = msvcr110.wcsstr
wcstod = msvcr110.wcstod
wcstof = msvcr110.wcstof
wcstoimax = msvcr110.wcstoimax
wcstok = msvcr110.wcstok
wcstok_s = msvcr110.wcstok_s
wcstol = msvcr110.wcstol
wcstold = msvcr110.wcstold
wcstoll = msvcr110.wcstoll
wcstombs = msvcr110.wcstombs
wcstombs_s = msvcr110.wcstombs_s
wcstoul = msvcr110.wcstoul
wcstoull = msvcr110.wcstoull
wcstoumax = msvcr110.wcstoumax
wcsxfrm = msvcr110.wcsxfrm
wctob = msvcr110.wctob
wctomb = msvcr110.wctomb
wctomb_s = msvcr110.wctomb_s
wctrans = msvcr110.wctrans
wctype = msvcr110.wctype
wmemcpy_s = msvcr110.wmemcpy_s
wmemmove_s = msvcr110.wmemmove_s
wprintf = msvcr110.wprintf
wprintf_s = msvcr110.wprintf_s
wscanf = msvcr110.wscanf
wscanf_s = msvcr110.wscanf_s
localtime = msvcr110._localtime32
localtime_s = msvcr110._localtime32_s
_fstati64 = msvcr110._fstat32i64
_ftime = msvcr110._ftime32
_wstati64 = msvcr110._wstat32i64
mktime = msvcr110._mktime32
gmtime = msvcr110._gmtime32
